; ModuleID = 'minisat.darwin.bc'
target datalayout = "e-m:o-i64:64-f80:128-n8:16:32:64-S128"
target triple = "x86_64-apple-macosx10.9.0"

%"class.Minisat::Solver" = type { i32 (...)**, %"class.Minisat::vec", %"class.Minisat::vec.0", i32, double, double, double, double, i8, i32, i32, i8, i8, double, i32, double, double, double, i32, double, i64, i64, i64, i64, i64, i64, i64, i64, i64, i64, i64, i8, %"class.Minisat::vec.1", %"class.Minisat::vec.1", double, %"class.Minisat::vec.2", double, %"class.Minisat::OccLists", %"class.Minisat::vec", %"class.Minisat::vec.5", %"class.Minisat::vec.5", %"class.Minisat::vec.0", %"class.Minisat::vec.6", %"class.Minisat::vec.7", i32, i32, i64, %"class.Minisat::vec.0", %"class.Minisat::Heap", double, i8, [7 x i8], %"class.Minisat::ClauseAllocator", %"class.Minisat::vec.5", %"class.Minisat::vec.0", %"class.Minisat::vec.0", %"class.Minisat::vec.0", double, double, i32, i64, i64, i8 }
%"class.Minisat::vec.1" = type { i32*, i32, i32 }
%"class.Minisat::vec.2" = type { double*, i32, i32 }
%"class.Minisat::OccLists" = type { %"class.Minisat::vec.3", %"class.Minisat::vec.5", %"class.Minisat::vec.0", %"struct.Minisat::Solver::WatcherDeleted" }
%"class.Minisat::vec.3" = type { %"class.Minisat::vec.4"*, i32, i32 }
%"class.Minisat::vec.4" = type { %"struct.Minisat::Solver::Watcher"*, i32, i32 }
%"struct.Minisat::Solver::Watcher" = type { i32, %"struct.Minisat::Lit" }
%"struct.Minisat::Lit" = type { i32 }
%"struct.Minisat::Solver::WatcherDeleted" = type { %"class.Minisat::ClauseAllocator"* }
%"class.Minisat::vec" = type { %"class.Minisat::lbool"*, i32, i32 }
%"class.Minisat::lbool" = type { i8 }
%"class.Minisat::vec.6" = type { i32*, i32, i32 }
%"class.Minisat::vec.7" = type { %"struct.Minisat::Solver::VarData"*, i32, i32 }
%"struct.Minisat::Solver::VarData" = type { i32, i32 }
%"class.Minisat::Heap" = type { %"struct.Minisat::Solver::VarOrderLt", %"class.Minisat::vec.6", %"class.Minisat::vec.6" }
%"struct.Minisat::Solver::VarOrderLt" = type { %"class.Minisat::vec.2"* }
%"class.Minisat::ClauseAllocator" = type { [20 x i8], i8, [3 x i8] }
%"class.Minisat::vec.5" = type { i8*, i32, i32 }
%"class.Minisat::vec.0" = type { %"struct.Minisat::Lit"*, i32, i32 }
%struct.__sFILE = type { i8*, i32, i32, i16, i16, %struct.__sbuf, i32, i8*, i32 (i8*)*, i32 (i8*, i8*, i32)*, i64 (i8*, i64, i32)*, i32 (i8*, i8*, i32)*, %struct.__sbuf, %struct.__sFILEX*, i32, [3 x i8], [1 x i8], %struct.__sbuf, i32, i64 }
%struct.__sFILEX = type opaque
%struct.__sbuf = type { i8*, i32 }
%"class.Minisat::vec.8" = type { %"class.Minisat::Option"**, i32, i32 }
%"class.Minisat::Option" = type { i32 (...)**, i8*, i8*, i8*, i8* }
%"class.Minisat::DoubleOption" = type { %"class.Minisat::Option", %"struct.Minisat::DoubleRange", double }
%"struct.Minisat::DoubleRange" = type { double, double, i8, i8 }
%"class.Minisat::IntOption" = type { %"class.Minisat::Option", %"struct.Minisat::IntRange", i32 }
%"struct.Minisat::IntRange" = type { i32, i32 }
%"class.Minisat::BoolOption" = type { %"class.Minisat::Option", i8 }
%struct.rusage = type { %struct.timeval, %struct.timeval, i64, i64, i64, i64, i64, i64, i64, i64, i64, i64, i64, i64, i64, i64 }
%struct.timeval = type { i64, i32 }
%"class.Minisat::StreamBuffer" = type { i8*, [1048576 x i8], i32, i32 }
%struct.rlimit = type { i64, i64 }
%"class.Minisat::RegionAllocator" = type { i32*, i32, i32, i32 }
%"class.Minisat::Clause" = type { %struct.anon, [0 x %union.anon] }
%struct.anon = type { [4 x i8] }
%union.anon = type { %"struct.Minisat::Lit" }
%struct.reduceDB_lt = type { %"class.Minisat::ClauseAllocator"* }
%struct.malloc_statistics_t = type { i32, i64, i64, i64 }
%struct._malloc_zone_t = type { i8*, i8*, i64 (%struct._malloc_zone_t*, i8*)*, i8* (%struct._malloc_zone_t*, i64)*, i8* (%struct._malloc_zone_t*, i64, i64)*, i8* (%struct._malloc_zone_t*, i64)*, void (%struct._malloc_zone_t*, i8*)*, i8* (%struct._malloc_zone_t*, i8*, i64)*, void (%struct._malloc_zone_t*)*, i8*, i32 (%struct._malloc_zone_t*, i64, i8**, i32)*, void (%struct._malloc_zone_t*, i8**, i32)*, %struct.malloc_introspection_t*, i32, i8* (%struct._malloc_zone_t*, i64, i64)*, void (%struct._malloc_zone_t*, i8*, i64)*, i64 (%struct._malloc_zone_t*, i64)* }
%struct.malloc_introspection_t = type { i32 (i32, i8*, i32, i64, i32 (i32, i64, i64, i8**)*, void (i32, i8*, i32, %struct.vm_range_t*, i32)*)*, i64 (%struct._malloc_zone_t*, i64)*, i32 (%struct._malloc_zone_t*)*, void (%struct._malloc_zone_t*, i32)*, void (%struct._malloc_zone_t*, i8*)*, void (%struct._malloc_zone_t*)*, void (%struct._malloc_zone_t*)*, {}*, i32 (%struct._malloc_zone_t*)*, i32 (%struct._malloc_zone_t*)*, void (%struct._malloc_zone_t*)*, void (%struct._malloc_zone_t*, i8*)*, void (%struct._malloc_zone_t*, void (i8*, i8*)*)* }
%struct.vm_range_t = type { i64, i64 }

@.str = private unnamed_addr constant [30 x i8] c"restarts              : %llu\0A\00", align 1
@.str1 = private unnamed_addr constant [47 x i8] c"conflicts             : %-12llu   (%.0f /sec)\0A\00", align 1
@.str2 = private unnamed_addr constant [65 x i8] c"decisions             : %-12llu   (%4.2f %% random) (%.0f /sec)\0A\00", align 1
@.str3 = private unnamed_addr constant [47 x i8] c"propagations          : %-12llu   (%.0f /sec)\0A\00", align 1
@.str4 = private unnamed_addr constant [54 x i8] c"conflict literals     : %-12llu   (%4.2f %% deleted)\0A\00", align 1
@.str5 = private unnamed_addr constant [33 x i8] c"Memory used           : %.2f MB\0A\00", align 1
@.str6 = private unnamed_addr constant [30 x i8] c"CPU time              : %g s\0A\00", align 1
@_ZTVN10__cxxabiv117__class_type_infoE = external global i8*
@_ZTSN7Minisat20OutOfMemoryExceptionE = linkonce_odr constant [33 x i8] c"N7Minisat20OutOfMemoryExceptionE\00"
@_ZTIN7Minisat20OutOfMemoryExceptionE = linkonce_odr constant { i8*, i8* } { i8* bitcast (i8** getelementptr inbounds (i8** @_ZTVN10__cxxabiv117__class_type_infoE, i64 2) to i8*), i8* getelementptr inbounds ([33 x i8]* @_ZTSN7Minisat20OutOfMemoryExceptionE, i32 0, i32 0) }
@.str7 = private unnamed_addr constant [112 x i8] c"USAGE: %s [options] <input-file> <result-output-file>\0A\0A  where input may be either in plain or gzipped DIMACS.\0A\00", align 1
@.str8 = private unnamed_addr constant [5 x i8] c"MAIN\00", align 1
@.str9 = private unnamed_addr constant [5 x i8] c"verb\00", align 1
@.str10 = private unnamed_addr constant [44 x i8] c"Verbosity level (0=silent, 1=some, 2=more).\00", align 1
@.str11 = private unnamed_addr constant [8 x i8] c"cpu-lim\00", align 1
@.str12 = private unnamed_addr constant [39 x i8] c"Limit on CPU time allowed in seconds.\0A\00", align 1
@.str13 = private unnamed_addr constant [8 x i8] c"mem-lim\00", align 1
@.str14 = private unnamed_addr constant [37 x i8] c"Limit on memory usage in megabytes.\0A\00", align 1
@_ZL6solver = internal unnamed_addr global %"class.Minisat::Solver"* null, align 8
@.str18 = private unnamed_addr constant [3 x i8] c"rb\00", align 1
@.str19 = private unnamed_addr constant [32 x i8] c"ERROR! Could not open file: %s\0A\00", align 1
@.str20 = private unnamed_addr constant [8 x i8] c"<stdin>\00", align 1
@.str23 = private unnamed_addr constant [3 x i8] c"wb\00", align 1
@.str24 = private unnamed_addr constant [73 x i8] c"|  Number of variables:  %12d                                         |\0A\00", align 1
@.str25 = private unnamed_addr constant [73 x i8] c"|  Number of clauses:    %12d                                         |\0A\00", align 1
@.str26 = private unnamed_addr constant [75 x i8] c"|  Parse time:           %12.2f s                                       |\0A\00", align 1
@.str27 = private unnamed_addr constant [7 x i8] c"UNSAT\0A\00", align 1
@.str31 = private unnamed_addr constant [15 x i8] c"UNSATISFIABLE\0A\00", align 1
@.str32 = private unnamed_addr constant [13 x i8] c"SATISFIABLE\0A\00", align 1
@.str33 = private unnamed_addr constant [15 x i8] c"INDETERMINATE\0A\00", align 1
@.str34 = private unnamed_addr constant [5 x i8] c"SAT\0A\00", align 1
@.str35 = private unnamed_addr constant [7 x i8] c"%s%s%d\00", align 1
@.str36 = private unnamed_addr constant [1 x i8] zeroinitializer, align 1
@.str37 = private unnamed_addr constant [2 x i8] c" \00", align 1
@.str38 = private unnamed_addr constant [2 x i8] c"-\00", align 1
@.str39 = private unnamed_addr constant [4 x i8] c" 0\0A\00", align 1
@.str40 = private unnamed_addr constant [7 x i8] c"INDET\0A\00", align 1
@.str41 = private unnamed_addr constant [6 x i8] c"p cnf\00", align 1
@.str42 = private unnamed_addr constant [34 x i8] c"PARSE ERROR! Unexpected char: %c\0A\00", align 1
@__stderrp = external global %struct.__sFILE*
@.str43 = private unnamed_addr constant [61 x i8] c"WARNING! DIMACS header mismatch: wrong number of variables.\0A\00", align 1
@.str44 = private unnamed_addr constant [59 x i8] c"WARNING! DIMACS header mismatch: wrong number of clauses.\0A\00", align 1
@.str46 = private unnamed_addr constant [8 x i8] c"<int32>\00", align 1
@_ZTVN7Minisat9IntOptionE = linkonce_odr unnamed_addr constant [6 x i8*] [i8* null, i8* bitcast ({ i8*, i8*, i8* }* @_ZTIN7Minisat9IntOptionE to i8*), i8* bitcast (void (%"class.Minisat::IntOption"*)* @_ZN7Minisat9IntOptionD1Ev to i8*), i8* bitcast (void (%"class.Minisat::IntOption"*)* @_ZN7Minisat9IntOptionD0Ev to i8*), i8* bitcast (i1 (%"class.Minisat::IntOption"*, i8*)* @_ZN7Minisat9IntOption5parseEPKc to i8*), i8* bitcast (void (%"class.Minisat::IntOption"*, i1)* @_ZN7Minisat9IntOption4helpEb to i8*)]
@_ZTVN10__cxxabiv120__si_class_type_infoE = external global i8*
@_ZTSN7Minisat9IntOptionE = linkonce_odr constant [21 x i8] c"N7Minisat9IntOptionE\00"
@_ZTSN7Minisat6OptionE = linkonce_odr constant [18 x i8] c"N7Minisat6OptionE\00"
@_ZTIN7Minisat6OptionE = linkonce_odr constant { i8*, i8* } { i8* bitcast (i8** getelementptr inbounds (i8** @_ZTVN10__cxxabiv117__class_type_infoE, i64 2) to i8*), i8* getelementptr inbounds ([18 x i8]* @_ZTSN7Minisat6OptionE, i32 0, i32 0) }
@_ZTIN7Minisat9IntOptionE = linkonce_odr constant { i8*, i8*, i8* } { i8* bitcast (i8** getelementptr inbounds (i8** @_ZTVN10__cxxabiv120__si_class_type_infoE, i64 2) to i8*), i8* getelementptr inbounds ([21 x i8]* @_ZTSN7Minisat9IntOptionE, i32 0, i32 0), i8* bitcast ({ i8*, i8* }* @_ZTIN7Minisat6OptionE to i8*) }
@.str47 = private unnamed_addr constant [18 x i8] c"  -%-12s = %-8s [\00", align 1
@.str48 = private unnamed_addr constant [5 x i8] c"imin\00", align 1
@.str49 = private unnamed_addr constant [4 x i8] c"%4d\00", align 1
@.str50 = private unnamed_addr constant [5 x i8] c" .. \00", align 1
@.str51 = private unnamed_addr constant [5 x i8] c"imax\00", align 1
@.str52 = private unnamed_addr constant [17 x i8] c"] (default: %d)\0A\00", align 1
@.str53 = private unnamed_addr constant [13 x i8] c"\0A        %s\0A\00", align 1
@.str55 = private unnamed_addr constant [49 x i8] c"ERROR! value <%s> is too large for option \22%s\22.\0A\00", align 1
@.str56 = private unnamed_addr constant [49 x i8] c"ERROR! value <%s> is too small for option \22%s\22.\0A\00", align 1
@_ZTVN7Minisat6OptionE = linkonce_odr unnamed_addr constant [6 x i8*] [i8* null, i8* bitcast ({ i8*, i8* }* @_ZTIN7Minisat6OptionE to i8*), i8* bitcast (void (%"class.Minisat::Option"*)* @_ZN7Minisat6OptionD1Ev to i8*), i8* bitcast (void (%"class.Minisat::Option"*)* @_ZN7Minisat6OptionD0Ev to i8*), i8* bitcast (void ()* @__cxa_pure_virtual to i8*), i8* bitcast (void ()* @__cxa_pure_virtual to i8*)]
@_ZZN7Minisat6Option13getOptionListEvE7options = linkonce_odr global %"class.Minisat::vec.8" zeroinitializer, align 8
@_ZGVZN7Minisat6Option13getOptionListEvE7options = linkonce_odr global i64 0
@__dso_handle = external global i8
@str57 = private unnamed_addr constant [20 x i8] c"*** INTERRUPTED ***\00"
@str59 = private unnamed_addr constant [14 x i8] c"INDETERMINATE\00"
@str60 = private unnamed_addr constant [14 x i8] c"UNSATISFIABLE\00"
@str61 = private unnamed_addr constant [80 x i8] c"===============================================================================\00"
@str62 = private unnamed_addr constant [27 x i8] c"Solved by unit propagation\00"
@str64 = private unnamed_addr constant [80 x i8] c"============================[ Problem Statistics ]=============================\00"
@str65 = private unnamed_addr constant [80 x i8] c"|                                                                             |\00"
@str66 = private unnamed_addr constant [54 x i8] c"Reading from standard input... Use '--help' for help.\00"
@str67 = private unnamed_addr constant [55 x i8] c"WARNING! Could not set resource limit: Virtual memory.\00"
@str68 = private unnamed_addr constant [49 x i8] c"WARNING! Could not set resource limit: CPU-time.\00"
@_ZL13opt_var_decay = internal global %"class.Minisat::DoubleOption" zeroinitializer, align 8
@.str15 = private unnamed_addr constant [10 x i8] c"var-decay\00", align 1
@.str116 = private unnamed_addr constant [35 x i8] c"The variable activity decay factor\00", align 1
@_ZL16opt_clause_decay = internal global %"class.Minisat::DoubleOption" zeroinitializer, align 8
@.str317 = private unnamed_addr constant [10 x i8] c"cla-decay\00", align 1
@.str418 = private unnamed_addr constant [33 x i8] c"The clause activity decay factor\00", align 1
@_ZL19opt_random_var_freq = internal global %"class.Minisat::DoubleOption" zeroinitializer, align 8
@.str619 = private unnamed_addr constant [9 x i8] c"rnd-freq\00", align 1
@.str720 = private unnamed_addr constant [82 x i8] c"The frequency with which the decision heuristic tries to choose a random variable\00", align 1
@_ZL15opt_random_seed = internal global %"class.Minisat::DoubleOption" zeroinitializer, align 8
@.str921 = private unnamed_addr constant [9 x i8] c"rnd-seed\00", align 1
@.str1022 = private unnamed_addr constant [38 x i8] c"Used by the random variable selection\00", align 1
@_ZL14opt_ccmin_mode = internal global %"class.Minisat::IntOption" zeroinitializer, align 8
@.str1223 = private unnamed_addr constant [11 x i8] c"ccmin-mode\00", align 1
@.str1324 = private unnamed_addr constant [64 x i8] c"Controls conflict clause minimization (0=none, 1=basic, 2=deep)\00", align 1
@_ZL16opt_phase_saving = internal global %"class.Minisat::IntOption" zeroinitializer, align 8
@.str1525 = private unnamed_addr constant [13 x i8] c"phase-saving\00", align 1
@.str16 = private unnamed_addr constant [63 x i8] c"Controls the level of phase saving (0=none, 1=limited, 2=full)\00", align 1
@_ZL16opt_rnd_init_act = internal global %"class.Minisat::BoolOption" zeroinitializer, align 8
@.str1826 = private unnamed_addr constant [9 x i8] c"rnd-init\00", align 1
@.str1927 = private unnamed_addr constant [31 x i8] c"Randomize the initial activity\00", align 1
@_ZL16opt_luby_restart = internal global %"class.Minisat::BoolOption" zeroinitializer, align 8
@.str21 = private unnamed_addr constant [5 x i8] c"luby\00", align 1
@.str22 = private unnamed_addr constant [30 x i8] c"Use the Luby restart sequence\00", align 1
@_ZL17opt_restart_first = internal global %"class.Minisat::IntOption" zeroinitializer, align 8
@.str2428 = private unnamed_addr constant [7 x i8] c"rfirst\00", align 1
@.str2529 = private unnamed_addr constant [26 x i8] c"The base restart interval\00", align 1
@_ZL15opt_restart_inc = internal global %"class.Minisat::DoubleOption" zeroinitializer, align 8
@.str2730 = private unnamed_addr constant [5 x i8] c"rinc\00", align 1
@.str28 = private unnamed_addr constant [33 x i8] c"Restart interval increase factor\00", align 1
@_ZL16opt_garbage_frac = internal global %"class.Minisat::DoubleOption" zeroinitializer, align 8
@.str30 = private unnamed_addr constant [8 x i8] c"gc-frac\00", align 1
@.str3131 = private unnamed_addr constant [79 x i8] c"The fraction of wasted memory allowed before a garbage collection is triggered\00", align 1
@_ZTVN7Minisat6SolverE = unnamed_addr constant [5 x i8*] [i8* null, i8* bitcast ({ i8*, i8* }* @_ZTIN7Minisat6SolverE to i8*), i8* bitcast (void (%"class.Minisat::Solver"*)* @_ZN7Minisat6SolverD1Ev to i8*), i8* bitcast (void (%"class.Minisat::Solver"*)* @_ZN7Minisat6SolverD0Ev to i8*), i8* bitcast (void (%"class.Minisat::Solver"*)* @_ZN7Minisat6Solver14garbageCollectEv to i8*)]
@__func__._ZN7Minisat6Solver10addClause_ERNS_3vecINS_3LitEEE = private unnamed_addr constant [11 x i8] c"addClause_\00", align 1
@.str3232 = private unnamed_addr constant [50 x i8] c"/Users/bruno/SAL/src/minisat-2.2.0/core/Solver.cc\00", align 1
@.str3333 = private unnamed_addr constant [21 x i8] c"decisionLevel() == 0\00", align 1
@__func__._ZN7Minisat6Solver12attachClauseEj = private unnamed_addr constant [13 x i8] c"attachClause\00", align 1
@.str3434 = private unnamed_addr constant [13 x i8] c"c.size() > 1\00", align 1
@__func__._ZN7Minisat6Solver12detachClauseEjb = private unnamed_addr constant [13 x i8] c"detachClause\00", align 1
@__func__._ZN7Minisat6Solver7analyzeEjRNS_3vecINS_3LitEEERi = private unnamed_addr constant [8 x i8] c"analyze\00", align 1
@.str3535 = private unnamed_addr constant [20 x i8] c"confl != CRef_Undef\00", align 1
@__func__._ZN7Minisat6Solver12litRedundantENS_3LitEj = private unnamed_addr constant [13 x i8] c"litRedundant\00", align 1
@.str3636 = private unnamed_addr constant [48 x i8] c"reason(var(analyze_stack.last())) != CRef_Undef\00", align 1
@__func__._ZN7Minisat6Solver12analyzeFinalENS_3LitERNS_3vecIS1_EE = private unnamed_addr constant [13 x i8] c"analyzeFinal\00", align 1
@.str3737 = private unnamed_addr constant [13 x i8] c"level(x) > 0\00", align 1
@__func__._ZN7Minisat6Solver16uncheckedEnqueueENS_3LitEj = private unnamed_addr constant [17 x i8] c"uncheckedEnqueue\00", align 1
@.str3838 = private unnamed_addr constant [20 x i8] c"value(p) == l_Undef\00", align 1
@__func__._ZN7Minisat6Solver9propagateEv = private unnamed_addr constant [10 x i8] c"propagate\00", align 1
@.str3939 = private unnamed_addr constant [18 x i8] c"c[1] == false_lit\00", align 1
@__func__._ZN7Minisat6Solver8simplifyEv = private unnamed_addr constant [9 x i8] c"simplify\00", align 1
@__func__._ZN7Minisat6Solver6searchEi = private unnamed_addr constant [7 x i8] c"search\00", align 1
@.str4040 = private unnamed_addr constant [3 x i8] c"ok\00", align 1
@.str4141 = private unnamed_addr constant [50 x i8] c"| %9d | %7d %8d %8d | %8d %8d %6.0f | %6.3f %% |\0A\00", align 1
@.str4642 = private unnamed_addr constant [6 x i8] c"%s%d \00", align 1
@.str4743 = private unnamed_addr constant [2 x i8] c"-\00", align 1
@.str4844 = private unnamed_addr constant [1 x i8] zeroinitializer, align 1
@.str4945 = private unnamed_addr constant [3 x i8] c"0\0A\00", align 1
@.str5046 = private unnamed_addr constant [3 x i8] c"wr\00", align 1
@.str5147 = private unnamed_addr constant [24 x i8] c"could not open file %s\0A\00", align 1
@.str5248 = private unnamed_addr constant [20 x i8] c"p cnf 1 2\0A1 0\0A-1 0\0A\00", align 1
@.str5349 = private unnamed_addr constant [13 x i8] c"p cnf %d %d\0A\00", align 1
@__func__._ZN7Minisat6Solver8toDimacsEP7__sFILERKNS_3vecINS_3LitEEE = private unnamed_addr constant [9 x i8] c"toDimacs\00", align 1
@.str54 = private unnamed_addr constant [33 x i8] c"value(assumptions[i]) != l_False\00", align 1
@.str5550 = private unnamed_addr constant [8 x i8] c"%s%d 0\0A\00", align 1
@.str5651 = private unnamed_addr constant [37 x i8] c"Wrote %d clauses with %d variables.\0A\00", align 1
@.str57 = private unnamed_addr constant [65 x i8] c"|  Garbage collection:   %12d bytes => %12d bytes             |\0A\00", align 1
@_ZTSN7Minisat6SolverE = constant [18 x i8] c"N7Minisat6SolverE\00"
@_ZTIN7Minisat6SolverE = constant { i8*, i8* } { i8* bitcast (i8** getelementptr inbounds (i8** @_ZTVN10__cxxabiv117__class_type_infoE, i64 2) to i8*), i8* getelementptr inbounds ([18 x i8]* @_ZTSN7Minisat6SolverE, i32 0, i32 0) }
@__func__._ZN7Minisat3vecIjE6shrinkEi = private unnamed_addr constant [7 x i8] c"shrink\00", align 1
@.str58 = private unnamed_addr constant [45 x i8] c"/Users/bruno/SAL/src/minisat-2.2.0/mtl/Vec.h\00", align 1
@.str59 = private unnamed_addr constant [13 x i8] c"nelems <= sz\00", align 1
@__func__._ZNK7Minisat15RegionAllocatorIjEixEj = private unnamed_addr constant [11 x i8] c"operator[]\00", align 1
@.str60 = private unnamed_addr constant [47 x i8] c"/Users/bruno/SAL/src/minisat-2.2.0/mtl/Alloc.h\00", align 1
@.str61 = private unnamed_addr constant [17 x i8] c"r >= 0 && r < sz\00", align 1
@__func__._ZN7Minisat3vecINS_3LitEE5push_ERKS1_ = private unnamed_addr constant [6 x i8] c"push_\00", align 1
@.str62 = private unnamed_addr constant [9 x i8] c"sz < cap\00", align 1
@__func__._ZN7Minisat3vecINS_3LitEE3popEv = private unnamed_addr constant [4 x i8] c"pop\00", align 1
@.str63 = private unnamed_addr constant [7 x i8] c"sz > 0\00", align 1
@.str64 = private unnamed_addr constant [46 x i8] c"/Users/bruno/SAL/src/minisat-2.2.0/mtl/Heap.h\00", align 1
@.str65 = private unnamed_addr constant [20 x i8] c"index < heap.size()\00", align 1
@__func__._ZN7MinisatL6removeINS_3vecINS_6Solver7WatcherEEES3_EEvRT_RKT0_ = private unnamed_addr constant [7 x i8] c"remove\00", align 1
@.str66 = private unnamed_addr constant [45 x i8] c"/Users/bruno/SAL/src/minisat-2.2.0/mtl/Alg.h\00", align 1
@.str67 = private unnamed_addr constant [14 x i8] c"j < ts.size()\00", align 1
@.str68 = private unnamed_addr constant [54 x i8] c"/Users/bruno/SAL/src/minisat-2.2.0/core/SolverTypes.h\00", align 1
@.str69 = private unnamed_addr constant [17 x i8] c"header.has_extra\00", align 1
@__func__._ZN7Minisat15RegionAllocatorIjE3leaEj = private unnamed_addr constant [4 x i8] c"lea\00", align 1
@__func__._ZN7Minisat15RegionAllocatorIjE5allocEi = private unnamed_addr constant [6 x i8] c"alloc\00", align 1
@.str70 = private unnamed_addr constant [9 x i8] c"size > 0\00", align 1
@__func__._ZN7Minisat15RegionAllocatorIjE8capacityEj = private unnamed_addr constant [9 x i8] c"capacity\00", align 1
@.str71 = private unnamed_addr constant [8 x i8] c"cap > 0\00", align 1
@__func__._ZN7Minisat6Clause8activityEv = private unnamed_addr constant [9 x i8] c"activity\00", align 1
@__func__._ZN7Minisat4HeapINS_6Solver10VarOrderLtEE6insertEi = private unnamed_addr constant [7 x i8] c"insert\00", align 1
@.str73 = private unnamed_addr constant [11 x i8] c"!inHeap(n)\00", align 1
@.str74 = private unnamed_addr constant [7 x i8] c"<bool>\00", align 1
@_ZTVN7Minisat10BoolOptionE = linkonce_odr unnamed_addr constant [6 x i8*] [i8* null, i8* bitcast ({ i8*, i8*, i8* }* @_ZTIN7Minisat10BoolOptionE to i8*), i8* bitcast (void (%"class.Minisat::BoolOption"*)* @_ZN7Minisat10BoolOptionD1Ev to i8*), i8* bitcast (void (%"class.Minisat::BoolOption"*)* @_ZN7Minisat10BoolOptionD0Ev to i8*), i8* bitcast (i1 (%"class.Minisat::BoolOption"*, i8*)* @_ZN7Minisat10BoolOption5parseEPKc to i8*), i8* bitcast (void (%"class.Minisat::BoolOption"*, i1)* @_ZN7Minisat10BoolOption4helpEb to i8*)]
@_ZTSN7Minisat10BoolOptionE = linkonce_odr constant [23 x i8] c"N7Minisat10BoolOptionE\00"
@_ZTIN7Minisat10BoolOptionE = linkonce_odr constant { i8*, i8*, i8* } { i8* bitcast (i8** getelementptr inbounds (i8** @_ZTVN10__cxxabiv120__si_class_type_infoE, i64 2) to i8*), i8* getelementptr inbounds ([23 x i8]* @_ZTSN7Minisat10BoolOptionE, i32 0, i32 0), i8* bitcast ({ i8*, i8* }* @_ZTIN7Minisat6OptionE to i8*) }
@.str75 = private unnamed_addr constant [14 x i8] c"  -%s, -no-%s\00", align 1
@.str77 = private unnamed_addr constant [15 x i8] c"(default: %s)\0A\00", align 1
@.str78 = private unnamed_addr constant [3 x i8] c"on\00", align 1
@.str79 = private unnamed_addr constant [4 x i8] c"off\00", align 1
@.str80 = private unnamed_addr constant [13 x i8] c"\0A        %s\0A\00", align 1
@.str82 = private unnamed_addr constant [4 x i8] c"no-\00", align 1
@.str83 = private unnamed_addr constant [8 x i8] c"<int32>\00", align 1
@.str84 = private unnamed_addr constant [18 x i8] c"  -%-12s = %-8s [\00", align 1
@.str85 = private unnamed_addr constant [5 x i8] c"imin\00", align 1
@.str86 = private unnamed_addr constant [4 x i8] c"%4d\00", align 1
@.str87 = private unnamed_addr constant [5 x i8] c" .. \00", align 1
@.str88 = private unnamed_addr constant [5 x i8] c"imax\00", align 1
@.str89 = private unnamed_addr constant [17 x i8] c"] (default: %d)\0A\00", align 1
@.str91 = private unnamed_addr constant [49 x i8] c"ERROR! value <%s> is too large for option \22%s\22.\0A\00", align 1
@.str92 = private unnamed_addr constant [49 x i8] c"ERROR! value <%s> is too small for option \22%s\22.\0A\00", align 1
@.str93 = private unnamed_addr constant [9 x i8] c"<double>\00", align 1
@_ZTVN7Minisat12DoubleOptionE = linkonce_odr unnamed_addr constant [6 x i8*] [i8* null, i8* bitcast ({ i8*, i8*, i8* }* @_ZTIN7Minisat12DoubleOptionE to i8*), i8* bitcast (void (%"class.Minisat::DoubleOption"*)* @_ZN7Minisat12DoubleOptionD1Ev to i8*), i8* bitcast (void (%"class.Minisat::DoubleOption"*)* @_ZN7Minisat12DoubleOptionD0Ev to i8*), i8* bitcast (i1 (%"class.Minisat::DoubleOption"*, i8*)* @_ZN7Minisat12DoubleOption5parseEPKc to i8*), i8* bitcast (void (%"class.Minisat::DoubleOption"*, i1)* @_ZN7Minisat12DoubleOption4helpEb to i8*)]
@_ZTSN7Minisat12DoubleOptionE = linkonce_odr constant [25 x i8] c"N7Minisat12DoubleOptionE\00"
@_ZTIN7Minisat12DoubleOptionE = linkonce_odr constant { i8*, i8*, i8* } { i8* bitcast (i8** getelementptr inbounds (i8** @_ZTVN10__cxxabiv120__si_class_type_infoE, i64 2) to i8*), i8* getelementptr inbounds ([25 x i8]* @_ZTSN7Minisat12DoubleOptionE, i32 0, i32 0), i8* bitcast ({ i8*, i8* }* @_ZTIN7Minisat6OptionE to i8*) }
@.str94 = private unnamed_addr constant [50 x i8] c"  -%-12s = %-8s %c%4.2g .. %4.2g%c (default: %g)\0A\00", align 1
@.str95 = private unnamed_addr constant [5 x i8] c"CORE\00", align 1
@llvm.global_ctors = appending global [1 x { i32, void ()*, i8* }] [{ i32, void ()*, i8* } { i32 65535, void ()* @_GLOBAL__I_a, i8* null }]
@str96 = private unnamed_addr constant [80 x i8] c"============================[ Search Statistics ]==============================\00"
@str97 = private unnamed_addr constant [80 x i8] c"| Conflicts |          ORIGINAL         |          LEARNT          | Progress |\00"
@str98 = private unnamed_addr constant [80 x i8] c"|           |    Vars  Clauses Literals |    Limit  Clauses Lit/Cl |          |\00"
@str99 = private unnamed_addr constant [80 x i8] c"===============================================================================\00"
@.str72 = private unnamed_addr constant [3 x i8] c"--\00", align 1
@.str173 = private unnamed_addr constant [5 x i8] c"help\00", align 1
@.str274 = private unnamed_addr constant [6 x i8] c"-verb\00", align 1
@.str475 = private unnamed_addr constant [52 x i8] c"ERROR! Unknown flag \22%s\22. Use '--%shelp' for help.\0A\00", align 1
@.str576 = private unnamed_addr constant [15 x i8] c"\0A%s OPTIONS:\0A\0A\00", align 1
@.str777 = private unnamed_addr constant [17 x i8] c"\0AHELP OPTIONS:\0A\0A\00", align 1
@.str878 = private unnamed_addr constant [39 x i8] c"  --%shelp        Print help message.\0A\00", align 1
@.str979 = private unnamed_addr constant [47 x i8] c"  --%shelp-verb   Print verbose help message.\0A\00", align 1
@_ZZN7Minisat6Option14getUsageStringEvE9usage_str = linkonce_odr global i8* null, align 8
@_ZZN7Minisat6Option19getHelpPrefixStringEvE15help_prefix_str = linkonce_odr global i8* getelementptr inbounds ([1 x i8]* @.str1080, i64 0, i64 0), align 8
@.str1080 = private unnamed_addr constant [1 x i8] zeroinitializer, align 1

; Function Attrs: ssp uwtable
define void @_Z10printStatsRN7Minisat6SolverE(%"class.Minisat::Solver"* nocapture readonly %solver) #0 {
  %ru.i = alloca %struct.rusage, align 8
  %1 = bitcast %struct.rusage* %ru.i to i8*
  call void @llvm.lifetime.start(i64 144, i8* %1) #2
  %2 = call i32 @getrusage(i32 0, %struct.rusage* %ru.i)
  %3 = getelementptr inbounds %struct.rusage* %ru.i, i64 0, i32 0, i32 0
  %4 = load i64* %3, align 8, !tbaa !3
  %5 = sitofp i64 %4 to double
  %6 = getelementptr inbounds %struct.rusage* %ru.i, i64 0, i32 0, i32 1
  %7 = load i32* %6, align 8, !tbaa !10
  %8 = sitofp i32 %7 to double
  %9 = fdiv double %8, 1.000000e+06
  %10 = fadd double %5, %9
  call void @llvm.lifetime.end(i64 144, i8* %1) #2
  %11 = call double @_ZN7Minisat11memUsedPeakEv()
  %12 = getelementptr inbounds %"class.Minisat::Solver"* %solver, i64 0, i32 21
  %13 = load i64* %12, align 8, !tbaa !11
  %14 = call i32 (i8*, ...)* @printf(i8* getelementptr inbounds ([30 x i8]* @.str, i64 0, i64 0), i64 %13)
  %15 = getelementptr inbounds %"class.Minisat::Solver"* %solver, i64 0, i32 25
  %16 = load i64* %15, align 8, !tbaa !30
  %17 = uitofp i64 %16 to double
  %18 = fdiv double %17, %10
  %19 = call i32 (i8*, ...)* @printf(i8* getelementptr inbounds ([47 x i8]* @.str1, i64 0, i64 0), i64 %16, double %18)
  %20 = getelementptr inbounds %"class.Minisat::Solver"* %solver, i64 0, i32 22
  %21 = load i64* %20, align 8, !tbaa !31
  %22 = getelementptr inbounds %"class.Minisat::Solver"* %solver, i64 0, i32 23
  %23 = load i64* %22, align 8, !tbaa !32
  %24 = uitofp i64 %23 to float
  %25 = fmul float %24, 1.000000e+02
  %26 = uitofp i64 %21 to float
  %27 = fdiv float %25, %26
  %28 = fpext float %27 to double
  %29 = uitofp i64 %21 to double
  %30 = fdiv double %29, %10
  %31 = call i32 (i8*, ...)* @printf(i8* getelementptr inbounds ([65 x i8]* @.str2, i64 0, i64 0), i64 %21, double %28, double %30)
  %32 = getelementptr inbounds %"class.Minisat::Solver"* %solver, i64 0, i32 24
  %33 = load i64* %32, align 8, !tbaa !33
  %34 = uitofp i64 %33 to double
  %35 = fdiv double %34, %10
  %36 = call i32 (i8*, ...)* @printf(i8* getelementptr inbounds ([47 x i8]* @.str3, i64 0, i64 0), i64 %33, double %35)
  %37 = getelementptr inbounds %"class.Minisat::Solver"* %solver, i64 0, i32 30
  %38 = load i64* %37, align 8, !tbaa !34
  %39 = getelementptr inbounds %"class.Minisat::Solver"* %solver, i64 0, i32 29
  %40 = load i64* %39, align 8, !tbaa !35
  %41 = sub i64 %40, %38
  %42 = mul i64 %41, 100
  %43 = uitofp i64 %42 to double
  %44 = uitofp i64 %40 to double
  %45 = fdiv double %43, %44
  %46 = call i32 (i8*, ...)* @printf(i8* getelementptr inbounds ([54 x i8]* @.str4, i64 0, i64 0), i64 %38, double %45)
  %47 = fcmp une double %11, 0.000000e+00
  br i1 %47, label %48, label %50

; <label>:48                                      ; preds = %0
  %49 = call i32 (i8*, ...)* @printf(i8* getelementptr inbounds ([33 x i8]* @.str5, i64 0, i64 0), double %11)
  br label %50

; <label>:50                                      ; preds = %48, %0
  %51 = call i32 (i8*, ...)* @printf(i8* getelementptr inbounds ([30 x i8]* @.str6, i64 0, i64 0), double %10)
  ret void
}

; Function Attrs: nounwind
declare i32 @printf(i8* nocapture readonly, ...) #1

; Function Attrs: ssp uwtable
define i32 @main(i32 %argc, i8** %argv) #0 {
  %ru.i21 = alloca %struct.rusage, align 8
  %lits.i.i = alloca %"class.Minisat::vec.0", align 8
  %in.i = alloca %"class.Minisat::StreamBuffer", align 8
  %ru.i = alloca %struct.rusage, align 8
  %1 = alloca i32, align 4
  %verb = alloca %"class.Minisat::IntOption", align 8
  %cpu_lim = alloca %"class.Minisat::IntOption", align 8
  %mem_lim = alloca %"class.Minisat::IntOption", align 8
  %S = alloca %"class.Minisat::Solver", align 8
  %rl = alloca %struct.rlimit, align 8
  %rl1 = alloca %struct.rlimit, align 8
  store i32 %argc, i32* %1, align 4, !tbaa !36
  invoke void @_ZN7Minisat12setUsageHelpEPKc(i8* getelementptr inbounds ([112 x i8]* @.str7, i64 0, i64 0))
          to label %2 unwind label %129

; <label>:2                                       ; preds = %0
  %3 = bitcast %"class.Minisat::IntOption"* %verb to i8*
  call void @llvm.lifetime.start(i64 56, i8* %3) #2
  %4 = getelementptr inbounds %"class.Minisat::IntOption"* %verb, i64 0, i32 0
  %5 = getelementptr inbounds %"class.Minisat::IntOption"* %verb, i64 0, i32 0, i32 0
  store i32 (...)** bitcast (i8** getelementptr inbounds ([6 x i8*]* @_ZTVN7Minisat6OptionE, i64 0, i64 2) to i32 (...)**), i32 (...)*** %5, align 8, !tbaa !37
  %6 = getelementptr inbounds %"class.Minisat::IntOption"* %verb, i64 0, i32 0, i32 1
  store i8* getelementptr inbounds ([5 x i8]* @.str9, i64 0, i64 0), i8** %6, align 8, !tbaa !39
  %7 = getelementptr inbounds %"class.Minisat::IntOption"* %verb, i64 0, i32 0, i32 2
  store i8* getelementptr inbounds ([44 x i8]* @.str10, i64 0, i64 0), i8** %7, align 8, !tbaa !41
  %8 = getelementptr inbounds %"class.Minisat::IntOption"* %verb, i64 0, i32 0, i32 3
  store i8* getelementptr inbounds ([5 x i8]* @.str8, i64 0, i64 0), i8** %8, align 8, !tbaa !42
  %9 = getelementptr inbounds %"class.Minisat::IntOption"* %verb, i64 0, i32 0, i32 4
  store i8* getelementptr inbounds ([8 x i8]* @.str46, i64 0, i64 0), i8** %9, align 8, !tbaa !43
  %10 = load atomic i8* bitcast (i64* @_ZGVZN7Minisat6Option13getOptionListEvE7options to i8*) acquire, align 8
  %11 = icmp eq i8 %10, 0
  br i1 %11, label %12, label %_ZN7Minisat6Option13getOptionListEv.exit.i.i.i

; <label>:12                                      ; preds = %2
  %13 = call i32 @__cxa_guard_acquire(i64* @_ZGVZN7Minisat6Option13getOptionListEvE7options) #2
  %14 = icmp eq i32 %13, 0
  br i1 %14, label %_ZN7Minisat6Option13getOptionListEv.exit.i.i.i, label %15

; <label>:15                                      ; preds = %12
  call void @llvm.memset.p0i8.i64(i8* bitcast (%"class.Minisat::vec.8"* @_ZZN7Minisat6Option13getOptionListEvE7options to i8*), i8 0, i64 16, i32 8, i1 false) #2
  %16 = call i32 @__cxa_atexit(void (i8*)* bitcast (void (%"class.Minisat::vec.8"*)* @_ZN7Minisat3vecIPNS_6OptionEED1Ev to void (i8*)*), i8* bitcast (%"class.Minisat::vec.8"* @_ZZN7Minisat6Option13getOptionListEvE7options to i8*), i8* @__dso_handle) #2
  call void @__cxa_guard_release(i64* @_ZGVZN7Minisat6Option13getOptionListEvE7options) #2
  br label %_ZN7Minisat6Option13getOptionListEv.exit.i.i.i

_ZN7Minisat6Option13getOptionListEv.exit.i.i.i:   ; preds = %15, %12, %2
  %17 = load i64* bitcast (i32* getelementptr inbounds (%"class.Minisat::vec.8"* @_ZZN7Minisat6Option13getOptionListEvE7options, i64 0, i32 1) to i64*), align 8
  %18 = trunc i64 %17 to i32
  %19 = lshr i64 %17, 32
  %20 = trunc i64 %19 to i32
  %21 = icmp eq i32 %18, %20
  br i1 %21, label %22, label %24

; <label>:22                                      ; preds = %_ZN7Minisat6Option13getOptionListEv.exit.i.i.i
  %23 = add nsw i32 %18, 1
  invoke void @_ZN7Minisat3vecIPNS_6OptionEE8capacityEi(%"class.Minisat::vec.8"* @_ZZN7Minisat6Option13getOptionListEvE7options, i32 %23)
          to label %.noexc unwind label %129

.noexc:                                           ; preds = %22
  %.pre.i.i.i.i = load i32* getelementptr inbounds (%"class.Minisat::vec.8"* @_ZZN7Minisat6Option13getOptionListEvE7options, i64 0, i32 1), align 8, !tbaa !44
  br label %24

; <label>:24                                      ; preds = %.noexc, %_ZN7Minisat6Option13getOptionListEv.exit.i.i.i
  %25 = phi i32 [ %.pre.i.i.i.i, %.noexc ], [ %18, %_ZN7Minisat6Option13getOptionListEv.exit.i.i.i ]
  %26 = add nsw i32 %25, 1
  store i32 %26, i32* getelementptr inbounds (%"class.Minisat::vec.8"* @_ZZN7Minisat6Option13getOptionListEvE7options, i64 0, i32 1), align 8, !tbaa !44
  %27 = sext i32 %25 to i64
  %28 = load %"class.Minisat::Option"*** getelementptr inbounds (%"class.Minisat::vec.8"* @_ZZN7Minisat6Option13getOptionListEvE7options, i64 0, i32 0), align 8, !tbaa !46
  %29 = getelementptr inbounds %"class.Minisat::Option"** %28, i64 %27
  store %"class.Minisat::Option"* %4, %"class.Minisat::Option"** %29, align 8, !tbaa !47
  store i32 (...)** bitcast (i8** getelementptr inbounds ([6 x i8*]* @_ZTVN7Minisat9IntOptionE, i64 0, i64 2) to i32 (...)**), i32 (...)*** %5, align 8, !tbaa !37
  %30 = getelementptr inbounds %"class.Minisat::IntOption"* %verb, i64 0, i32 1
  %31 = bitcast %"struct.Minisat::IntRange"* %30 to i64*
  store i64 8589934592, i64* %31, align 8
  %32 = getelementptr inbounds %"class.Minisat::IntOption"* %verb, i64 0, i32 2
  store i32 1, i32* %32, align 8, !tbaa !48
  %33 = bitcast %"class.Minisat::IntOption"* %cpu_lim to i8*
  call void @llvm.lifetime.start(i64 56, i8* %33) #2
  %34 = getelementptr inbounds %"class.Minisat::IntOption"* %cpu_lim, i64 0, i32 0
  %35 = getelementptr inbounds %"class.Minisat::IntOption"* %cpu_lim, i64 0, i32 0, i32 0
  store i32 (...)** bitcast (i8** getelementptr inbounds ([6 x i8*]* @_ZTVN7Minisat6OptionE, i64 0, i64 2) to i32 (...)**), i32 (...)*** %35, align 8, !tbaa !37
  %36 = getelementptr inbounds %"class.Minisat::IntOption"* %cpu_lim, i64 0, i32 0, i32 1
  store i8* getelementptr inbounds ([8 x i8]* @.str11, i64 0, i64 0), i8** %36, align 8, !tbaa !39
  %37 = getelementptr inbounds %"class.Minisat::IntOption"* %cpu_lim, i64 0, i32 0, i32 2
  store i8* getelementptr inbounds ([39 x i8]* @.str12, i64 0, i64 0), i8** %37, align 8, !tbaa !41
  %38 = getelementptr inbounds %"class.Minisat::IntOption"* %cpu_lim, i64 0, i32 0, i32 3
  store i8* getelementptr inbounds ([5 x i8]* @.str8, i64 0, i64 0), i8** %38, align 8, !tbaa !42
  %39 = getelementptr inbounds %"class.Minisat::IntOption"* %cpu_lim, i64 0, i32 0, i32 4
  store i8* getelementptr inbounds ([8 x i8]* @.str46, i64 0, i64 0), i8** %39, align 8, !tbaa !43
  %40 = load atomic i8* bitcast (i64* @_ZGVZN7Minisat6Option13getOptionListEvE7options to i8*) acquire, align 8
  %41 = icmp eq i8 %40, 0
  br i1 %41, label %42, label %_ZN7Minisat6Option13getOptionListEv.exit.i.i.i10

; <label>:42                                      ; preds = %24
  %43 = call i32 @__cxa_guard_acquire(i64* @_ZGVZN7Minisat6Option13getOptionListEvE7options) #2
  %44 = icmp eq i32 %43, 0
  br i1 %44, label %_ZN7Minisat6Option13getOptionListEv.exit.i.i.i10, label %45

; <label>:45                                      ; preds = %42
  call void @llvm.memset.p0i8.i64(i8* bitcast (%"class.Minisat::vec.8"* @_ZZN7Minisat6Option13getOptionListEvE7options to i8*), i8 0, i64 16, i32 8, i1 false) #2
  %46 = call i32 @__cxa_atexit(void (i8*)* bitcast (void (%"class.Minisat::vec.8"*)* @_ZN7Minisat3vecIPNS_6OptionEED1Ev to void (i8*)*), i8* bitcast (%"class.Minisat::vec.8"* @_ZZN7Minisat6Option13getOptionListEvE7options to i8*), i8* @__dso_handle) #2
  call void @__cxa_guard_release(i64* @_ZGVZN7Minisat6Option13getOptionListEvE7options) #2
  br label %_ZN7Minisat6Option13getOptionListEv.exit.i.i.i10

_ZN7Minisat6Option13getOptionListEv.exit.i.i.i10: ; preds = %45, %42, %24
  %47 = load i64* bitcast (i32* getelementptr inbounds (%"class.Minisat::vec.8"* @_ZZN7Minisat6Option13getOptionListEvE7options, i64 0, i32 1) to i64*), align 8
  %48 = trunc i64 %47 to i32
  %49 = lshr i64 %47, 32
  %50 = trunc i64 %49 to i32
  %51 = icmp eq i32 %48, %50
  br i1 %51, label %52, label %54

; <label>:52                                      ; preds = %_ZN7Minisat6Option13getOptionListEv.exit.i.i.i10
  %53 = add nsw i32 %48, 1
  invoke void @_ZN7Minisat3vecIPNS_6OptionEE8capacityEi(%"class.Minisat::vec.8"* @_ZZN7Minisat6Option13getOptionListEvE7options, i32 %53)
          to label %.noexc12 unwind label %133

.noexc12:                                         ; preds = %52
  %.pre.i.i.i.i11 = load i32* getelementptr inbounds (%"class.Minisat::vec.8"* @_ZZN7Minisat6Option13getOptionListEvE7options, i64 0, i32 1), align 8, !tbaa !44
  br label %54

; <label>:54                                      ; preds = %.noexc12, %_ZN7Minisat6Option13getOptionListEv.exit.i.i.i10
  %55 = phi i32 [ %.pre.i.i.i.i11, %.noexc12 ], [ %48, %_ZN7Minisat6Option13getOptionListEv.exit.i.i.i10 ]
  %56 = add nsw i32 %55, 1
  store i32 %56, i32* getelementptr inbounds (%"class.Minisat::vec.8"* @_ZZN7Minisat6Option13getOptionListEvE7options, i64 0, i32 1), align 8, !tbaa !44
  %57 = sext i32 %55 to i64
  %58 = load %"class.Minisat::Option"*** getelementptr inbounds (%"class.Minisat::vec.8"* @_ZZN7Minisat6Option13getOptionListEvE7options, i64 0, i32 0), align 8, !tbaa !46
  %59 = getelementptr inbounds %"class.Minisat::Option"** %58, i64 %57
  store %"class.Minisat::Option"* %34, %"class.Minisat::Option"** %59, align 8, !tbaa !47
  store i32 (...)** bitcast (i8** getelementptr inbounds ([6 x i8*]* @_ZTVN7Minisat9IntOptionE, i64 0, i64 2) to i32 (...)**), i32 (...)*** %35, align 8, !tbaa !37
  %60 = getelementptr inbounds %"class.Minisat::IntOption"* %cpu_lim, i64 0, i32 1
  %61 = bitcast %"struct.Minisat::IntRange"* %60 to i64*
  store i64 9223372032559808512, i64* %61, align 8
  %62 = getelementptr inbounds %"class.Minisat::IntOption"* %cpu_lim, i64 0, i32 2
  store i32 2147483647, i32* %62, align 8, !tbaa !48
  %63 = bitcast %"class.Minisat::IntOption"* %mem_lim to i8*
  call void @llvm.lifetime.start(i64 56, i8* %63) #2
  %64 = getelementptr inbounds %"class.Minisat::IntOption"* %mem_lim, i64 0, i32 0
  %65 = getelementptr inbounds %"class.Minisat::IntOption"* %mem_lim, i64 0, i32 0, i32 0
  store i32 (...)** bitcast (i8** getelementptr inbounds ([6 x i8*]* @_ZTVN7Minisat6OptionE, i64 0, i64 2) to i32 (...)**), i32 (...)*** %65, align 8, !tbaa !37
  %66 = getelementptr inbounds %"class.Minisat::IntOption"* %mem_lim, i64 0, i32 0, i32 1
  store i8* getelementptr inbounds ([8 x i8]* @.str13, i64 0, i64 0), i8** %66, align 8, !tbaa !39
  %67 = getelementptr inbounds %"class.Minisat::IntOption"* %mem_lim, i64 0, i32 0, i32 2
  store i8* getelementptr inbounds ([37 x i8]* @.str14, i64 0, i64 0), i8** %67, align 8, !tbaa !41
  %68 = getelementptr inbounds %"class.Minisat::IntOption"* %mem_lim, i64 0, i32 0, i32 3
  store i8* getelementptr inbounds ([5 x i8]* @.str8, i64 0, i64 0), i8** %68, align 8, !tbaa !42
  %69 = getelementptr inbounds %"class.Minisat::IntOption"* %mem_lim, i64 0, i32 0, i32 4
  store i8* getelementptr inbounds ([8 x i8]* @.str46, i64 0, i64 0), i8** %69, align 8, !tbaa !43
  %70 = load atomic i8* bitcast (i64* @_ZGVZN7Minisat6Option13getOptionListEvE7options to i8*) acquire, align 8
  %71 = icmp eq i8 %70, 0
  br i1 %71, label %72, label %_ZN7Minisat6Option13getOptionListEv.exit.i.i.i14

; <label>:72                                      ; preds = %54
  %73 = call i32 @__cxa_guard_acquire(i64* @_ZGVZN7Minisat6Option13getOptionListEvE7options) #2
  %74 = icmp eq i32 %73, 0
  br i1 %74, label %_ZN7Minisat6Option13getOptionListEv.exit.i.i.i14, label %75

; <label>:75                                      ; preds = %72
  call void @llvm.memset.p0i8.i64(i8* bitcast (%"class.Minisat::vec.8"* @_ZZN7Minisat6Option13getOptionListEvE7options to i8*), i8 0, i64 16, i32 8, i1 false) #2
  %76 = call i32 @__cxa_atexit(void (i8*)* bitcast (void (%"class.Minisat::vec.8"*)* @_ZN7Minisat3vecIPNS_6OptionEED1Ev to void (i8*)*), i8* bitcast (%"class.Minisat::vec.8"* @_ZZN7Minisat6Option13getOptionListEvE7options to i8*), i8* @__dso_handle) #2
  call void @__cxa_guard_release(i64* @_ZGVZN7Minisat6Option13getOptionListEvE7options) #2
  br label %_ZN7Minisat6Option13getOptionListEv.exit.i.i.i14

_ZN7Minisat6Option13getOptionListEv.exit.i.i.i14: ; preds = %75, %72, %54
  %77 = load i64* bitcast (i32* getelementptr inbounds (%"class.Minisat::vec.8"* @_ZZN7Minisat6Option13getOptionListEvE7options, i64 0, i32 1) to i64*), align 8
  %78 = trunc i64 %77 to i32
  %79 = lshr i64 %77, 32
  %80 = trunc i64 %79 to i32
  %81 = icmp eq i32 %78, %80
  br i1 %81, label %82, label %84

; <label>:82                                      ; preds = %_ZN7Minisat6Option13getOptionListEv.exit.i.i.i14
  %83 = add nsw i32 %78, 1
  invoke void @_ZN7Minisat3vecIPNS_6OptionEE8capacityEi(%"class.Minisat::vec.8"* @_ZZN7Minisat6Option13getOptionListEvE7options, i32 %83)
          to label %.noexc16 unwind label %137

.noexc16:                                         ; preds = %82
  %.pre.i.i.i.i15 = load i32* getelementptr inbounds (%"class.Minisat::vec.8"* @_ZZN7Minisat6Option13getOptionListEvE7options, i64 0, i32 1), align 8, !tbaa !44
  br label %84

; <label>:84                                      ; preds = %.noexc16, %_ZN7Minisat6Option13getOptionListEv.exit.i.i.i14
  %85 = phi i32 [ %.pre.i.i.i.i15, %.noexc16 ], [ %78, %_ZN7Minisat6Option13getOptionListEv.exit.i.i.i14 ]
  %86 = add nsw i32 %85, 1
  store i32 %86, i32* getelementptr inbounds (%"class.Minisat::vec.8"* @_ZZN7Minisat6Option13getOptionListEvE7options, i64 0, i32 1), align 8, !tbaa !44
  %87 = sext i32 %85 to i64
  %88 = load %"class.Minisat::Option"*** getelementptr inbounds (%"class.Minisat::vec.8"* @_ZZN7Minisat6Option13getOptionListEvE7options, i64 0, i32 0), align 8, !tbaa !46
  %89 = getelementptr inbounds %"class.Minisat::Option"** %88, i64 %87
  store %"class.Minisat::Option"* %64, %"class.Minisat::Option"** %89, align 8, !tbaa !47
  store i32 (...)** bitcast (i8** getelementptr inbounds ([6 x i8*]* @_ZTVN7Minisat9IntOptionE, i64 0, i64 2) to i32 (...)**), i32 (...)*** %65, align 8, !tbaa !37
  %90 = getelementptr inbounds %"class.Minisat::IntOption"* %mem_lim, i64 0, i32 1
  %91 = bitcast %"struct.Minisat::IntRange"* %90 to i64*
  store i64 9223372032559808512, i64* %91, align 8
  %92 = getelementptr inbounds %"class.Minisat::IntOption"* %mem_lim, i64 0, i32 2
  store i32 2147483647, i32* %92, align 8, !tbaa !48
  invoke void @_ZN7Minisat12parseOptionsERiPPcb(i32* %1, i8** %argv, i1 zeroext true)
          to label %93 unwind label %141

; <label>:93                                      ; preds = %84
  %94 = bitcast %"class.Minisat::Solver"* %S to i8*
  call void @llvm.lifetime.start(i64 688, i8* %94) #2
  invoke void @_ZN7Minisat6SolverC1Ev(%"class.Minisat::Solver"* %S)
          to label %95 unwind label %141

; <label>:95                                      ; preds = %93
  %96 = bitcast %struct.rusage* %ru.i to i8*
  call void @llvm.lifetime.start(i64 144, i8* %96) #2
  %97 = invoke i32 @getrusage(i32 0, %struct.rusage* %ru.i)
          to label %98 unwind label %145

; <label>:98                                      ; preds = %95
  %99 = getelementptr inbounds %struct.rusage* %ru.i, i64 0, i32 0, i32 0
  %100 = load i64* %99, align 8, !tbaa !3
  %101 = sitofp i64 %100 to double
  %102 = getelementptr inbounds %struct.rusage* %ru.i, i64 0, i32 0, i32 1
  %103 = load i32* %102, align 8, !tbaa !10
  %104 = sitofp i32 %103 to double
  %105 = fdiv double %104, 1.000000e+06
  %106 = fadd double %101, %105
  call void @llvm.lifetime.end(i64 144, i8* %96) #2
  %107 = load i32* %32, align 8, !tbaa !36
  %108 = getelementptr inbounds %"class.Minisat::Solver"* %S, i64 0, i32 3
  store i32 %107, i32* %108, align 8, !tbaa !51
  store %"class.Minisat::Solver"* %S, %"class.Minisat::Solver"** @_ZL6solver, align 8, !tbaa !47
  %109 = invoke void (i32)* (i32, void (i32)*)* @signal(i32 2, void (i32)* @_ZL11SIGINT_exiti)
          to label %110 unwind label %145

; <label>:110                                     ; preds = %98
  %111 = invoke void (i32)* (i32, void (i32)*)* @signal(i32 24, void (i32)* @_ZL11SIGINT_exiti)
          to label %112 unwind label %145

; <label>:112                                     ; preds = %110
  %113 = load i32* %62, align 8, !tbaa !36
  %114 = icmp eq i32 %113, 2147483647
  br i1 %114, label %148, label %115

; <label>:115                                     ; preds = %112
  %116 = invoke i32 @"\01_getrlimit"(i32 0, %struct.rlimit* %rl)
          to label %117 unwind label %145

; <label>:117                                     ; preds = %115
  %118 = getelementptr inbounds %struct.rlimit* %rl, i64 0, i32 1
  %119 = load i64* %118, align 8, !tbaa !52
  %120 = icmp eq i64 %119, 9223372036854775807
  %.pre144 = load i32* %62, align 8, !tbaa !36
  %121 = sext i32 %.pre144 to i64
  %122 = icmp ult i64 %121, %119
  %or.cond148 = or i1 %120, %122
  br i1 %or.cond148, label %._crit_edge143, label %148

._crit_edge143:                                   ; preds = %117
  %123 = sext i32 %.pre144 to i64
  %124 = getelementptr inbounds %struct.rlimit* %rl, i64 0, i32 0
  store i64 %123, i64* %124, align 8, !tbaa !54
  %125 = invoke i32 @"\01_setrlimit"(i32 0, %struct.rlimit* %rl)
          to label %126 unwind label %145

; <label>:126                                     ; preds = %._crit_edge143
  %127 = icmp eq i32 %125, -1
  br i1 %127, label %128, label %148

; <label>:128                                     ; preds = %126
  %puts54 = call i32 @puts(i8* getelementptr inbounds ([49 x i8]* @str68, i64 0, i64 0))
  br label %148

; <label>:129                                     ; preds = %22, %0
  %130 = landingpad { i8*, i32 } personality i8* bitcast (i32 (...)* @__gxx_personality_v0 to i8*)
          catch i8* bitcast ({ i8*, i8* }* @_ZTIN7Minisat20OutOfMemoryExceptionE to i8*)
  %131 = extractvalue { i8*, i32 } %130, 0
  %132 = extractvalue { i8*, i32 } %130, 1
  br label %445

; <label>:133                                     ; preds = %52
  %134 = landingpad { i8*, i32 } personality i8* bitcast (i32 (...)* @__gxx_personality_v0 to i8*)
          cleanup
          catch i8* bitcast ({ i8*, i8* }* @_ZTIN7Minisat20OutOfMemoryExceptionE to i8*)
  %135 = extractvalue { i8*, i32 } %134, 0
  %136 = extractvalue { i8*, i32 } %134, 1
  br label %445

; <label>:137                                     ; preds = %82
  %138 = landingpad { i8*, i32 } personality i8* bitcast (i32 (...)* @__gxx_personality_v0 to i8*)
          cleanup
          catch i8* bitcast ({ i8*, i8* }* @_ZTIN7Minisat20OutOfMemoryExceptionE to i8*)
  %139 = extractvalue { i8*, i32 } %138, 0
  %140 = extractvalue { i8*, i32 } %138, 1
  br label %445

; <label>:141                                     ; preds = %_ZN7Minisat3vecINS_3LitEED1Ev.exit31, %93, %84
  %142 = landingpad { i8*, i32 } personality i8* bitcast (i32 (...)* @__gxx_personality_v0 to i8*)
          cleanup
          catch i8* bitcast ({ i8*, i8* }* @_ZTIN7Minisat20OutOfMemoryExceptionE to i8*)
  %143 = extractvalue { i8*, i32 } %142, 0
  %144 = extractvalue { i8*, i32 } %142, 1
  br label %445

; <label>:145                                     ; preds = %365, %363, %352, %350, %348, %331, %317, %312, %193, %185, %.thread, %171, %160, %151, %._crit_edge143, %115, %110, %98, %95
  %146 = landingpad { i8*, i32 } personality i8* bitcast (i32 (...)* @__gxx_personality_v0 to i8*)
          cleanup
          catch i8* bitcast ({ i8*, i8* }* @_ZTIN7Minisat20OutOfMemoryExceptionE to i8*)
  br label %.body

.body:                                            ; preds = %.preheader.i.i.i5.i.i, %.nonloopexit.i.i, %145
  %eh.lpad-body = phi { i8*, i32 } [ %146, %145 ], [ %lpad.phi.i.i, %.preheader.i.i.i5.i.i ], [ %lpad.phi.i.i, %.nonloopexit.i.i ]
  %147 = extractvalue { i8*, i32 } %eh.lpad-body, 0
  br label %442

; <label>:148                                     ; preds = %128, %126, %117, %112
  %149 = load i32* %92, align 8, !tbaa !36
  %150 = icmp eq i32 %149, 2147483647
  br i1 %150, label %166, label %151

; <label>:151                                     ; preds = %148
  %152 = sext i32 %149 to i64
  %153 = shl nsw i64 %152, 20
  %154 = invoke i32 @"\01_getrlimit"(i32 5, %struct.rlimit* %rl1)
          to label %155 unwind label %145

; <label>:155                                     ; preds = %151
  %156 = getelementptr inbounds %struct.rlimit* %rl1, i64 0, i32 1
  %157 = load i64* %156, align 8, !tbaa !52
  %158 = icmp eq i64 %157, 9223372036854775807
  %159 = icmp ult i64 %153, %157
  %or.cond = or i1 %158, %159
  br i1 %or.cond, label %160, label %166

; <label>:160                                     ; preds = %155
  %161 = getelementptr inbounds %struct.rlimit* %rl1, i64 0, i32 0
  store i64 %153, i64* %161, align 8, !tbaa !54
  %162 = invoke i32 @"\01_setrlimit"(i32 5, %struct.rlimit* %rl1)
          to label %163 unwind label %145

; <label>:163                                     ; preds = %160
  %164 = icmp eq i32 %162, -1
  br i1 %164, label %165, label %166

; <label>:165                                     ; preds = %163
  %puts53 = call i32 @puts(i8* getelementptr inbounds ([55 x i8]* @str67, i64 0, i64 0))
  br label %166

; <label>:166                                     ; preds = %165, %163, %155, %148
  %167 = load i32* %1, align 4, !tbaa !36
  %168 = icmp eq i32 %167, 1
  br i1 %168, label %169, label %.thread

; <label>:169                                     ; preds = %166
  %puts52 = call i32 @puts(i8* getelementptr inbounds ([54 x i8]* @str66, i64 0, i64 0))
  %.pr = load i32* %1, align 4, !tbaa !36
  %170 = icmp eq i32 %.pr, 1
  br i1 %170, label %171, label %.thread

; <label>:171                                     ; preds = %169
  %172 = invoke i8* @gzdopen(i32 0, i8* getelementptr inbounds ([3 x i8]* @.str18, i64 0, i64 0))
          to label %176 unwind label %145

.thread:                                          ; preds = %169, %166
  %173 = getelementptr inbounds i8** %argv, i64 1
  %174 = load i8** %173, align 8, !tbaa !47
  %175 = invoke i8* @gzopen(i8* %174, i8* getelementptr inbounds ([3 x i8]* @.str18, i64 0, i64 0))
          to label %176 unwind label %145

; <label>:176                                     ; preds = %.thread, %171
  %177 = phi i8* [ %172, %171 ], [ %175, %.thread ]
  %178 = icmp eq i8* %177, null
  br i1 %178, label %179, label %189

; <label>:179                                     ; preds = %176
  %180 = load i32* %1, align 4, !tbaa !36
  %181 = icmp eq i32 %180, 1
  br i1 %181, label %185, label %182

; <label>:182                                     ; preds = %179
  %183 = getelementptr inbounds i8** %argv, i64 1
  %184 = load i8** %183, align 8, !tbaa !47
  br label %185

; <label>:185                                     ; preds = %182, %179
  %186 = phi i8* [ %184, %182 ], [ getelementptr inbounds ([8 x i8]* @.str20, i64 0, i64 0), %179 ]
  %187 = call i32 (i8*, ...)* @printf(i8* getelementptr inbounds ([32 x i8]* @.str19, i64 0, i64 0), i8* %186)
  invoke void @exit(i32 1) #16
          to label %188 unwind label %145

; <label>:188                                     ; preds = %185
  unreachable

; <label>:189                                     ; preds = %176
  %190 = load i32* %108, align 8, !tbaa !51
  %191 = icmp sgt i32 %190, 0
  br i1 %191, label %192, label %193

; <label>:192                                     ; preds = %189
  %puts50 = call i32 @puts(i8* getelementptr inbounds ([80 x i8]* @str64, i64 0, i64 0))
  %puts51 = call i32 @puts(i8* getelementptr inbounds ([80 x i8]* @str65, i64 0, i64 0))
  br label %193

; <label>:193                                     ; preds = %192, %189
  %194 = bitcast %"class.Minisat::StreamBuffer"* %in.i to i8*
  call void @llvm.lifetime.start(i64 1048592, i8* %194) #2
  %195 = getelementptr inbounds %"class.Minisat::StreamBuffer"* %in.i, i64 0, i32 0
  store i8* %177, i8** %195, align 8, !tbaa !55
  %196 = getelementptr inbounds %"class.Minisat::StreamBuffer"* %in.i, i64 0, i32 2
  %197 = getelementptr inbounds %"class.Minisat::StreamBuffer"* %in.i, i64 0, i32 3
  store i32 0, i32* %197, align 4, !tbaa !57
  store i32 0, i32* %196, align 8, !tbaa !58
  %198 = getelementptr inbounds %"class.Minisat::StreamBuffer"* %in.i, i64 0, i32 1, i64 0
  %199 = invoke i32 @gzread(i8* %177, i8* %198, i32 1048576)
          to label %.noexc20 unwind label %145

.noexc20:                                         ; preds = %193
  store i32 %199, i32* %197, align 4, !tbaa !57
  %200 = bitcast %"class.Minisat::vec.0"* %lits.i.i to i8*
  call void @llvm.lifetime.start(i64 16, i8* %200)
  call void @llvm.memset.p0i8.i64(i8* %200, i8 0, i64 16, i32 8, i1 false) #2
  %201 = getelementptr inbounds %"class.Minisat::vec.0"* %lits.i.i, i64 0, i32 0
  %202 = getelementptr inbounds %"class.Minisat::Solver"* %S, i64 0, i32 43, i32 1
  %203 = getelementptr inbounds %"class.Minisat::vec.0"* %lits.i.i, i64 0, i32 1
  %204 = getelementptr inbounds %"class.Minisat::vec.0"* %lits.i.i, i64 0, i32 2
  %205 = bitcast i32* %203 to i64*
  br label %_ZN7MinisatL8skipLineINS_12StreamBufferEEEvRT_.exit.outer.i.i

_ZN7MinisatL8skipLineINS_12StreamBufferEEEvRT_.exit.outer.i.i: ; preds = %_ZN7MinisatL10readClauseINS_12StreamBufferENS_6SolverEEEvRT_RT0_RNS_3vecINS_3LitEEE.exit.i.i, %.noexc20
  %cnt.0.ph.i.i = phi i32 [ 0, %.noexc20 ], [ %296, %_ZN7MinisatL10readClauseINS_12StreamBufferENS_6SolverEEEvRT_RT0_RNS_3vecINS_3LitEEE.exit.i.i ]
  %clauses.0.ph.i.i = phi i32 [ 0, %.noexc20 ], [ %clauses.0.ph34.i.i, %_ZN7MinisatL10readClauseINS_12StreamBufferENS_6SolverEEEvRT_RT0_RNS_3vecINS_3LitEEE.exit.i.i ]
  %vars.0.ph.i.i = phi i32 [ 0, %.noexc20 ], [ %vars.0.ph35.i.i, %_ZN7MinisatL10readClauseINS_12StreamBufferENS_6SolverEEEvRT_RT0_RNS_3vecINS_3LitEEE.exit.i.i ]
  br label %_ZN7MinisatL8skipLineINS_12StreamBufferEEEvRT_.exit.outer33.i.i

_ZN7MinisatL8skipLineINS_12StreamBufferEEEvRT_.exit.outer33.i.i: ; preds = %246, %_ZN7MinisatL8skipLineINS_12StreamBufferEEEvRT_.exit.outer.i.i
  %clauses.0.ph34.i.i = phi i32 [ %247, %246 ], [ %clauses.0.ph.i.i, %_ZN7MinisatL8skipLineINS_12StreamBufferEEEvRT_.exit.outer.i.i ]
  %vars.0.ph35.i.i = phi i32 [ %245, %246 ], [ %vars.0.ph.i.i, %_ZN7MinisatL8skipLineINS_12StreamBufferEEEvRT_.exit.outer.i.i ]
  %.pre.i.pre.i.i = load i32* %197, align 4, !tbaa !57
  br label %_ZN7Minisat12StreamBufferppEv.exit.i.outer.i.i

_ZN7Minisat12StreamBufferppEv.exit.i.outer.i.i:   ; preds = %_ZN7Minisat12StreamBufferppEv.exit.i16._crit_edge.i.i, %_ZN7Minisat12StreamBufferppEv.exit.i16.i.i, %.noexc.i.i, %_ZN7MinisatL8skipLineINS_12StreamBufferEEEvRT_.exit.outer33.i.i
  %206 = phi i32 [ %.pre.i.pre.i.i, %_ZN7MinisatL8skipLineINS_12StreamBufferEEEvRT_.exit.outer33.i.i ], [ %219, %.noexc.i.i ], [ %267, %_ZN7Minisat12StreamBufferppEv.exit.i16._crit_edge.i.i ], [ %267, %_ZN7Minisat12StreamBufferppEv.exit.i16.i.i ]
  %.pre.i.i = load i32* %196, align 8, !tbaa !58
  %207 = sext i32 %.pre.i.i to i64
  br label %_ZN7Minisat12StreamBufferppEv.exit.i.i.i

_ZN7Minisat12StreamBufferppEv.exit.i.i.i:         ; preds = %.critedge.i.i.i, %_ZN7Minisat12StreamBufferppEv.exit.i.outer.i.i
  %indvars.iv.i = phi i64 [ %indvars.iv.next.i, %.critedge.i.i.i ], [ %207, %_ZN7Minisat12StreamBufferppEv.exit.i.outer.i.i ]
  %208 = trunc i64 %indvars.iv.i to i32
  %209 = icmp slt i32 %208, %206
  br i1 %209, label %_ZNK7Minisat12StreamBufferdeEv.exit.i.i.i, label %_ZNK7Minisat12StreamBufferdeEv.exit.thread.i.i

_ZNK7Minisat12StreamBufferdeEv.exit.i.i.i:        ; preds = %_ZN7Minisat12StreamBufferppEv.exit.i.i.i
  %210 = getelementptr inbounds %"class.Minisat::StreamBuffer"* %in.i, i64 0, i32 1, i64 %indvars.iv.i
  %211 = load i8* %210, align 1, !tbaa !59
  %212 = icmp ugt i8 %211, 8
  br i1 %212, label %_ZNK7Minisat12StreamBufferdeEv.exit1.i.i.i, label %_ZNK7Minisat12StreamBufferdeEv.exit13.thread.i.i

_ZNK7Minisat12StreamBufferdeEv.exit1.i.i.i:       ; preds = %_ZNK7Minisat12StreamBufferdeEv.exit.i.i.i
  %213 = icmp ult i8 %211, 14
  %214 = icmp eq i8 %211, 32
  %or.cond.i.i = or i1 %213, %214
  br i1 %or.cond.i.i, label %.critedge.i.i.i, label %_ZNK7Minisat12StreamBufferdeEv.exit7.i.i

.critedge.i.i.i:                                  ; preds = %_ZNK7Minisat12StreamBufferdeEv.exit1.i.i.i
  %indvars.iv.next.i = add nsw i64 %indvars.iv.i, 1
  %215 = trunc i64 %indvars.iv.next.i to i32
  store i32 %215, i32* %196, align 8, !tbaa !58
  %216 = icmp slt i32 %215, %206
  br i1 %216, label %_ZN7Minisat12StreamBufferppEv.exit.i.i.i, label %217

; <label>:217                                     ; preds = %.critedge.i.i.i
  store i32 0, i32* %196, align 8, !tbaa !58
  %218 = load i8** %195, align 8, !tbaa !55
  %219 = invoke i32 @gzread(i8* %218, i8* %198, i32 1048576)
          to label %.noexc.i.i unwind label %.loopexit.i.i

.noexc.i.i:                                       ; preds = %217
  store i32 %219, i32* %197, align 4, !tbaa !57
  br label %_ZN7Minisat12StreamBufferppEv.exit.i.outer.i.i

.loopexit.i.i:                                    ; preds = %217
  %lpad.loopexit.i.i = landingpad { i8*, i32 } personality i8* bitcast (i32 (...)* @__gxx_personality_v0 to i8*)
          cleanup
          catch i8* bitcast ({ i8*, i8* }* @_ZTIN7Minisat20OutOfMemoryExceptionE to i8*)
  br label %.nonloopexit.i.i

.nonloopexit.loopexit.i.i:                        ; preds = %.lr.ph.i.i.i
  %lpad.loopexit18.i.i = landingpad { i8*, i32 } personality i8* bitcast (i32 (...)* @__gxx_personality_v0 to i8*)
          cleanup
          catch i8* bitcast ({ i8*, i8* }* @_ZTIN7Minisat20OutOfMemoryExceptionE to i8*)
  br label %.nonloopexit.i.i

.nonloopexit.nonloopexit.loopexit.i.i:            ; preds = %_ZN7Minisat3vecINS_3LitEE4pushERKS1_.exit.i.i.i, %287
  %lpad.loopexit21.i.i = landingpad { i8*, i32 } personality i8* bitcast (i32 (...)* @__gxx_personality_v0 to i8*)
          cleanup
          catch i8* bitcast ({ i8*, i8* }* @_ZTIN7Minisat20OutOfMemoryExceptionE to i8*)
  br label %.nonloopexit.i.i

.nonloopexit.nonloopexit.nonloopexit.loopexit.i.i: ; preds = %264
  %lpad.loopexit23.i.i = landingpad { i8*, i32 } personality i8* bitcast (i32 (...)* @__gxx_personality_v0 to i8*)
          cleanup
          catch i8* bitcast ({ i8*, i8* }* @_ZTIN7Minisat20OutOfMemoryExceptionE to i8*)
  br label %.nonloopexit.i.i

.nonloopexit.nonloopexit.nonloopexit.nonloopexit.loopexit.i.i: ; preds = %241
  %lpad.loopexit26.i.i = landingpad { i8*, i32 } personality i8* bitcast (i32 (...)* @__gxx_personality_v0 to i8*)
          cleanup
          catch i8* bitcast ({ i8*, i8* }* @_ZTIN7Minisat20OutOfMemoryExceptionE to i8*)
  br label %.nonloopexit.i.i

.nonloopexit.nonloopexit.nonloopexit.nonloopexit.nonloopexit.loopexit.loopexit.i.i: ; preds = %246, %244
  %lpad.loopexit31.i.i = landingpad { i8*, i32 } personality i8* bitcast (i32 (...)* @__gxx_personality_v0 to i8*)
          cleanup
          catch i8* bitcast ({ i8*, i8* }* @_ZTIN7Minisat20OutOfMemoryExceptionE to i8*)
  br label %.nonloopexit.i.i

.nonloopexit.nonloopexit.nonloopexit.nonloopexit.nonloopexit.loopexit.nonloopexit.i.i: ; preds = %_ZN7MinisatL10readClauseINS_12StreamBufferENS_6SolverEEEvRT_RT0_RNS_3vecINS_3LitEEE.exit.i.i, %_ZN7Minisat3vecINS_3LitEE5clearEb.exit.preheader.i.i.i
  %lpad.nonloopexit.i.i = landingpad { i8*, i32 } personality i8* bitcast (i32 (...)* @__gxx_personality_v0 to i8*)
          cleanup
          catch i8* bitcast ({ i8*, i8* }* @_ZTIN7Minisat20OutOfMemoryExceptionE to i8*)
  br label %.nonloopexit.i.i

.nonloopexit.nonloopexit.nonloopexit.nonloopexit.nonloopexit.nonloopexit.i.i: ; preds = %253
  %lpad.nonloopexit29.i.i = landingpad { i8*, i32 } personality i8* bitcast (i32 (...)* @__gxx_personality_v0 to i8*)
          cleanup
          catch i8* bitcast ({ i8*, i8* }* @_ZTIN7Minisat20OutOfMemoryExceptionE to i8*)
  br label %.nonloopexit.i.i

.nonloopexit.i.i:                                 ; preds = %.nonloopexit.nonloopexit.nonloopexit.nonloopexit.nonloopexit.nonloopexit.i.i, %.nonloopexit.nonloopexit.nonloopexit.nonloopexit.nonloopexit.loopexit.nonloopexit.i.i, %.nonloopexit.nonloopexit.nonloopexit.nonloopexit.nonloopexit.loopexit.loopexit.i.i, %.nonloopexit.nonloopexit.nonloopexit.nonloopexit.loopexit.i.i, %.nonloopexit.nonloopexit.nonloopexit.loopexit.i.i, %.nonloopexit.nonloopexit.loopexit.i.i, %.nonloopexit.loopexit.i.i, %.loopexit.i.i
  %lpad.phi.i.i = phi { i8*, i32 } [ %lpad.loopexit.i.i, %.loopexit.i.i ], [ %lpad.loopexit18.i.i, %.nonloopexit.loopexit.i.i ], [ %lpad.loopexit21.i.i, %.nonloopexit.nonloopexit.loopexit.i.i ], [ %lpad.loopexit23.i.i, %.nonloopexit.nonloopexit.nonloopexit.loopexit.i.i ], [ %lpad.loopexit26.i.i, %.nonloopexit.nonloopexit.nonloopexit.nonloopexit.loopexit.i.i ], [ %lpad.nonloopexit29.i.i, %.nonloopexit.nonloopexit.nonloopexit.nonloopexit.nonloopexit.nonloopexit.i.i ], [ %lpad.loopexit31.i.i, %.nonloopexit.nonloopexit.nonloopexit.nonloopexit.nonloopexit.loopexit.loopexit.i.i ], [ %lpad.nonloopexit.i.i, %.nonloopexit.nonloopexit.nonloopexit.nonloopexit.nonloopexit.loopexit.nonloopexit.i.i ]
  %220 = load %"struct.Minisat::Lit"** %201, align 8, !tbaa !60
  %221 = icmp eq %"struct.Minisat::Lit"* %220, null
  br i1 %221, label %.body, label %.preheader.i.i.i5.i.i

.preheader.i.i.i5.i.i:                            ; preds = %.nonloopexit.i.i
  store i32 0, i32* %203, align 8, !tbaa !61
  %222 = bitcast %"struct.Minisat::Lit"* %220 to i8*
  call void @free(i8* %222) #2
  store %"struct.Minisat::Lit"* null, %"struct.Minisat::Lit"** %201, align 8, !tbaa !60
  store i32 0, i32* %204, align 4, !tbaa !62
  br label %.body

_ZNK7Minisat12StreamBufferdeEv.exit7.i.i:         ; preds = %_ZNK7Minisat12StreamBufferdeEv.exit1.i.i.i
  switch i8 %211, label %_ZNK7Minisat12StreamBufferdeEv.exit13.thread.i.i [
    i8 112, label %.loopexit.i
    i8 99, label %_ZNK7Minisat12StreamBufferdeEv.exit.i15.i.i
  ]

.loopexit.i:                                      ; preds = %_ZN7Minisat12StreamBufferppEv.exit.backedge.i._crit_edge.i.i, %_ZNK7Minisat12StreamBufferdeEv.exit7.i.i
  %223 = phi i32 [ %.pre98.i.i, %_ZN7Minisat12StreamBufferppEv.exit.backedge.i._crit_edge.i.i ], [ %208, %_ZNK7Minisat12StreamBufferdeEv.exit7.i.i ]
  %224 = phi i32 [ %238, %_ZN7Minisat12StreamBufferppEv.exit.backedge.i._crit_edge.i.i ], [ %206, %_ZNK7Minisat12StreamBufferdeEv.exit7.i.i ]
  %225 = phi i32 [ %phitmp.i.i, %_ZN7Minisat12StreamBufferppEv.exit.backedge.i._crit_edge.i.i ], [ 112, %_ZNK7Minisat12StreamBufferdeEv.exit7.i.i ]
  %.02.i.i.i = phi i8* [ %235, %_ZN7Minisat12StreamBufferppEv.exit.backedge.i._crit_edge.i.i ], [ getelementptr inbounds ([6 x i8]* @.str41, i64 0, i64 0), %_ZNK7Minisat12StreamBufferdeEv.exit7.i.i ]
  %226 = icmp slt i32 %223, %224
  br i1 %226, label %227, label %_ZNK7Minisat12StreamBufferdeEv.exit.i9.i.i

; <label>:227                                     ; preds = %.loopexit.i
  %228 = sext i32 %223 to i64
  %229 = getelementptr inbounds %"class.Minisat::StreamBuffer"* %in.i, i64 0, i32 1, i64 %228
  %230 = load i8* %229, align 1, !tbaa !59
  %231 = zext i8 %230 to i32
  br label %_ZNK7Minisat12StreamBufferdeEv.exit.i9.i.i

_ZNK7Minisat12StreamBufferdeEv.exit.i9.i.i:       ; preds = %227, %.loopexit.i
  %232 = phi i32 [ %231, %227 ], [ -1, %.loopexit.i ]
  %233 = icmp eq i32 %225, %232
  br i1 %233, label %234, label %_ZN7MinisatL10eagerMatchINS_12StreamBufferEEEbRT_PKc.exit.i.i

; <label>:234                                     ; preds = %_ZNK7Minisat12StreamBufferdeEv.exit.i9.i.i
  %235 = getelementptr inbounds i8* %.02.i.i.i, i64 1
  %236 = add nsw i32 %223, 1
  store i32 %236, i32* %196, align 8, !tbaa !58
  %237 = icmp slt i32 %236, %224
  br i1 %237, label %_ZN7Minisat12StreamBufferppEv.exit.backedge.i.i.i, label %241

_ZN7Minisat12StreamBufferppEv.exit.backedge.i.i.i: ; preds = %.noexc10.i.i, %234
  %238 = phi i32 [ %224, %234 ], [ %243, %.noexc10.i.i ]
  %239 = load i8* %235, align 1, !tbaa !59
  %240 = icmp eq i8 %239, 0
  br i1 %240, label %244, label %_ZN7Minisat12StreamBufferppEv.exit.backedge.i._crit_edge.i.i

_ZN7Minisat12StreamBufferppEv.exit.backedge.i._crit_edge.i.i: ; preds = %_ZN7Minisat12StreamBufferppEv.exit.backedge.i.i.i
  %.pre98.i.i = load i32* %196, align 8, !tbaa !58
  %phitmp.i.i = sext i8 %239 to i32
  br label %.loopexit.i

; <label>:241                                     ; preds = %234
  store i32 0, i32* %196, align 8, !tbaa !58
  %242 = load i8** %195, align 8, !tbaa !55
  %243 = invoke i32 @gzread(i8* %242, i8* %198, i32 1048576)
          to label %.noexc10.i.i unwind label %.nonloopexit.nonloopexit.nonloopexit.nonloopexit.loopexit.i.i

.noexc10.i.i:                                     ; preds = %241
  store i32 %243, i32* %197, align 4, !tbaa !57
  br label %_ZN7Minisat12StreamBufferppEv.exit.backedge.i.i.i

; <label>:244                                     ; preds = %_ZN7Minisat12StreamBufferppEv.exit.backedge.i.i.i
  %245 = invoke fastcc i32 @_ZN7MinisatL8parseIntINS_12StreamBufferEEEiRT_(%"class.Minisat::StreamBuffer"* %in.i)
          to label %246 unwind label %.nonloopexit.nonloopexit.nonloopexit.nonloopexit.nonloopexit.loopexit.loopexit.i.i

; <label>:246                                     ; preds = %244
  %247 = invoke fastcc i32 @_ZN7MinisatL8parseIntINS_12StreamBufferEEEiRT_(%"class.Minisat::StreamBuffer"* %in.i)
          to label %_ZN7MinisatL8skipLineINS_12StreamBufferEEEvRT_.exit.outer33.i.i unwind label %.nonloopexit.nonloopexit.nonloopexit.nonloopexit.nonloopexit.loopexit.loopexit.i.i

_ZN7MinisatL10eagerMatchINS_12StreamBufferEEEbRT_PKc.exit.i.i: ; preds = %_ZNK7Minisat12StreamBufferdeEv.exit.i9.i.i
  br i1 %226, label %248, label %253

; <label>:248                                     ; preds = %_ZN7MinisatL10eagerMatchINS_12StreamBufferEEEbRT_PKc.exit.i.i
  %249 = sext i32 %223 to i64
  %250 = getelementptr inbounds %"class.Minisat::StreamBuffer"* %in.i, i64 0, i32 1, i64 %249
  %251 = load i8* %250, align 1, !tbaa !59
  %252 = zext i8 %251 to i32
  br label %253

; <label>:253                                     ; preds = %248, %_ZN7MinisatL10eagerMatchINS_12StreamBufferEEEbRT_PKc.exit.i.i
  %254 = phi i32 [ %252, %248 ], [ -1, %_ZN7MinisatL10eagerMatchINS_12StreamBufferEEEbRT_PKc.exit.i.i ]
  %255 = call i32 (i8*, ...)* @printf(i8* getelementptr inbounds ([34 x i8]* @.str42, i64 0, i64 0), i32 %254)
  invoke void @exit(i32 3) #16
          to label %256 unwind label %.nonloopexit.nonloopexit.nonloopexit.nonloopexit.nonloopexit.nonloopexit.i.i

; <label>:256                                     ; preds = %253
  unreachable

_ZNK7Minisat12StreamBufferdeEv.exit.i15.i.i:      ; preds = %_ZN7Minisat12StreamBufferppEv.exit.i16._crit_edge.i.i, %_ZNK7Minisat12StreamBufferdeEv.exit7.i.i
  %257 = phi i32 [ %267, %_ZN7Minisat12StreamBufferppEv.exit.i16._crit_edge.i.i ], [ %206, %_ZNK7Minisat12StreamBufferdeEv.exit7.i.i ]
  %258 = phi i32 [ %.pre100.i.i, %_ZN7Minisat12StreamBufferppEv.exit.i16._crit_edge.i.i ], [ %208, %_ZNK7Minisat12StreamBufferdeEv.exit7.i.i ]
  %259 = sext i32 %258 to i64
  %260 = getelementptr inbounds %"class.Minisat::StreamBuffer"* %in.i, i64 0, i32 1, i64 %259
  %261 = load i8* %260, align 1, !tbaa !59
  %phitmp.i.i.i = icmp eq i8 %261, 10
  %262 = add nsw i32 %258, 1
  store i32 %262, i32* %196, align 8, !tbaa !58
  %263 = icmp slt i32 %262, %257
  br i1 %263, label %_ZN7Minisat12StreamBufferppEv.exit.i16.i.i, label %264

; <label>:264                                     ; preds = %_ZNK7Minisat12StreamBufferdeEv.exit.i15.i.i
  store i32 0, i32* %196, align 8, !tbaa !58
  %265 = load i8** %195, align 8, !tbaa !55
  %266 = invoke i32 @gzread(i8* %265, i8* %198, i32 1048576)
          to label %.noexc17.i.i unwind label %.nonloopexit.nonloopexit.nonloopexit.loopexit.i.i

.noexc17.i.i:                                     ; preds = %264
  store i32 %266, i32* %197, align 4, !tbaa !57
  br label %_ZN7Minisat12StreamBufferppEv.exit.i16.i.i

_ZN7Minisat12StreamBufferppEv.exit.i16.i.i:       ; preds = %.noexc17.i.i, %_ZNK7Minisat12StreamBufferdeEv.exit.i15.i.i
  %267 = phi i32 [ %257, %_ZNK7Minisat12StreamBufferdeEv.exit.i15.i.i ], [ %266, %.noexc17.i.i ]
  br i1 %phitmp.i.i.i, label %_ZN7Minisat12StreamBufferppEv.exit.i.outer.i.i, label %_ZN7Minisat12StreamBufferppEv.exit.i16._crit_edge.i.i

_ZN7Minisat12StreamBufferppEv.exit.i16._crit_edge.i.i: ; preds = %_ZN7Minisat12StreamBufferppEv.exit.i16.i.i
  %.pre100.i.i = load i32* %196, align 8, !tbaa !58
  %not..i.i.i.i = icmp slt i32 %.pre100.i.i, %267
  br i1 %not..i.i.i.i, label %_ZNK7Minisat12StreamBufferdeEv.exit.i15.i.i, label %_ZN7Minisat12StreamBufferppEv.exit.i.outer.i.i

_ZNK7Minisat12StreamBufferdeEv.exit13.thread.i.i: ; preds = %_ZNK7Minisat12StreamBufferdeEv.exit7.i.i, %_ZNK7Minisat12StreamBufferdeEv.exit.i.i.i
  %268 = load %"struct.Minisat::Lit"** %201, align 8, !tbaa !60
  %269 = icmp eq %"struct.Minisat::Lit"* %268, null
  br i1 %269, label %_ZN7Minisat3vecINS_3LitEE5clearEb.exit.preheader.i.i.i, label %.preheader.i.i.i.i

.preheader.i.i.i.i:                               ; preds = %_ZNK7Minisat12StreamBufferdeEv.exit13.thread.i.i
  store i32 0, i32* %203, align 8, !tbaa !61
  br label %_ZN7Minisat3vecINS_3LitEE5clearEb.exit.preheader.i.i.i

_ZN7Minisat3vecINS_3LitEE5clearEb.exit.preheader.i.i.i: ; preds = %.preheader.i.i.i.i, %_ZNK7Minisat12StreamBufferdeEv.exit13.thread.i.i
  %270 = invoke fastcc i32 @_ZN7MinisatL8parseIntINS_12StreamBufferEEEiRT_(%"class.Minisat::StreamBuffer"* %in.i)
          to label %.noexc1.i.i unwind label %.nonloopexit.nonloopexit.nonloopexit.nonloopexit.nonloopexit.loopexit.nonloopexit.i.i

.noexc1.i.i:                                      ; preds = %_ZN7Minisat3vecINS_3LitEE5clearEb.exit.preheader.i.i.i
  %271 = icmp eq i32 %270, 0
  br i1 %271, label %_ZN7MinisatL10readClauseINS_12StreamBufferENS_6SolverEEEvRT_RT0_RNS_3vecINS_3LitEEE.exit.i.i, label %.lr.ph1.i.i.i

.lr.ph1.i.i.i:                                    ; preds = %.noexc4.i.i, %.noexc1.i.i
  %272 = phi i32 [ %294, %.noexc4.i.i ], [ %270, %.noexc1.i.i ]
  %ispos.i.i.i = icmp sgt i32 %272, -1
  %neg.i.i.i = sub i32 0, %272
  %273 = select i1 %ispos.i.i.i, i32 %272, i32 %neg.i.i.i
  %274 = load i32* %202, align 8, !tbaa !63
  %275 = icmp sgt i32 %273, %274
  br i1 %275, label %.lr.ph.i.i.i, label %._crit_edge.i.i.i

.lr.ph.i.i.i:                                     ; preds = %.noexc2.i.i, %.lr.ph1.i.i.i
  %276 = invoke i32 @_ZN7Minisat6Solver6newVarEbb(%"class.Minisat::Solver"* %S, i1 zeroext true, i1 zeroext true)
          to label %.noexc2.i.i unwind label %.nonloopexit.loopexit.i.i

.noexc2.i.i:                                      ; preds = %.lr.ph.i.i.i
  %277 = load i32* %202, align 8, !tbaa !63
  %278 = icmp sgt i32 %273, %277
  br i1 %278, label %.lr.ph.i.i.i, label %._crit_edge.i.i.i

._crit_edge.i.i.i:                                ; preds = %.noexc2.i.i, %.lr.ph1.i.i.i
  %279 = shl i32 %273, 1
  %280 = add i32 %279, -2
  %not..i.i.i = icmp slt i32 %272, 1
  %281 = zext i1 %not..i.i.i to i32
  %..i.i.i = or i32 %280, %281
  %282 = load i64* %205, align 8
  %283 = trunc i64 %282 to i32
  %284 = lshr i64 %282, 32
  %285 = trunc i64 %284 to i32
  %286 = icmp eq i32 %283, %285
  br i1 %286, label %287, label %_ZN7Minisat3vecINS_3LitEE4pushERKS1_.exit.i.i.i

; <label>:287                                     ; preds = %._crit_edge.i.i.i
  %288 = add nsw i32 %283, 1
  invoke void @_ZN7Minisat3vecINS_3LitEE8capacityEi(%"class.Minisat::vec.0"* %lits.i.i, i32 %288)
          to label %.noexc3.i.i unwind label %.nonloopexit.nonloopexit.loopexit.i.i

.noexc3.i.i:                                      ; preds = %287
  %.pre.i.i.i.i19 = load i32* %203, align 8, !tbaa !61
  br label %_ZN7Minisat3vecINS_3LitEE4pushERKS1_.exit.i.i.i

_ZN7Minisat3vecINS_3LitEE4pushERKS1_.exit.i.i.i:  ; preds = %.noexc3.i.i, %._crit_edge.i.i.i
  %289 = phi i32 [ %.pre.i.i.i.i19, %.noexc3.i.i ], [ %283, %._crit_edge.i.i.i ]
  %290 = add nsw i32 %289, 1
  store i32 %290, i32* %203, align 8, !tbaa !61
  %291 = sext i32 %289 to i64
  %292 = load %"struct.Minisat::Lit"** %201, align 8, !tbaa !60
  %293 = getelementptr inbounds %"struct.Minisat::Lit"* %292, i64 %291, i32 0
  store i32 %..i.i.i, i32* %293, align 4, !tbaa !36
  %294 = invoke fastcc i32 @_ZN7MinisatL8parseIntINS_12StreamBufferEEEiRT_(%"class.Minisat::StreamBuffer"* %in.i)
          to label %.noexc4.i.i unwind label %.nonloopexit.nonloopexit.loopexit.i.i

.noexc4.i.i:                                      ; preds = %_ZN7Minisat3vecINS_3LitEE4pushERKS1_.exit.i.i.i
  %295 = icmp eq i32 %294, 0
  br i1 %295, label %_ZN7MinisatL10readClauseINS_12StreamBufferENS_6SolverEEEvRT_RT0_RNS_3vecINS_3LitEEE.exit.i.i, label %.lr.ph1.i.i.i

_ZN7MinisatL10readClauseINS_12StreamBufferENS_6SolverEEEvRT_RT0_RNS_3vecINS_3LitEEE.exit.i.i: ; preds = %.noexc4.i.i, %.noexc1.i.i
  %296 = add nsw i32 %cnt.0.ph.i.i, 1
  %297 = invoke zeroext i1 @_ZN7Minisat6Solver10addClause_ERNS_3vecINS_3LitEEE(%"class.Minisat::Solver"* %S, %"class.Minisat::vec.0"* %lits.i.i)
          to label %_ZN7MinisatL8skipLineINS_12StreamBufferEEEvRT_.exit.outer.i.i unwind label %.nonloopexit.nonloopexit.nonloopexit.nonloopexit.nonloopexit.loopexit.nonloopexit.i.i

_ZNK7Minisat12StreamBufferdeEv.exit.thread.i.i:   ; preds = %_ZN7Minisat12StreamBufferppEv.exit.i.i.i
  %298 = load i32* %202, align 8, !tbaa !63
  %299 = icmp eq i32 %vars.0.ph35.i.i, %298
  br i1 %299, label %303, label %300

; <label>:300                                     ; preds = %_ZNK7Minisat12StreamBufferdeEv.exit.thread.i.i
  %301 = load %struct.__sFILE** @__stderrp, align 8, !tbaa !47
  %302 = call i64 @fwrite(i8* getelementptr inbounds ([61 x i8]* @.str43, i64 0, i64 0), i64 60, i64 1, %struct.__sFILE* %301)
  br label %303

; <label>:303                                     ; preds = %300, %_ZNK7Minisat12StreamBufferdeEv.exit.thread.i.i
  %304 = icmp eq i32 %cnt.0.ph.i.i, %clauses.0.ph34.i.i
  br i1 %304, label %308, label %305

; <label>:305                                     ; preds = %303
  %306 = load %struct.__sFILE** @__stderrp, align 8, !tbaa !47
  %307 = call i64 @fwrite(i8* getelementptr inbounds ([59 x i8]* @.str44, i64 0, i64 0), i64 58, i64 1, %struct.__sFILE* %306)
  br label %308

; <label>:308                                     ; preds = %305, %303
  %309 = load %"struct.Minisat::Lit"** %201, align 8, !tbaa !60
  %310 = icmp eq %"struct.Minisat::Lit"* %309, null
  br i1 %310, label %312, label %.preheader.i.i.i.i.i

.preheader.i.i.i.i.i:                             ; preds = %308
  store i32 0, i32* %203, align 8, !tbaa !61
  %311 = bitcast %"struct.Minisat::Lit"* %309 to i8*
  call void @free(i8* %311) #2
  store %"struct.Minisat::Lit"* null, %"struct.Minisat::Lit"** %201, align 8, !tbaa !60
  store i32 0, i32* %204, align 4, !tbaa !62
  br label %312

; <label>:312                                     ; preds = %.preheader.i.i.i.i.i, %308
  call void @llvm.lifetime.end(i64 16, i8* %200)
  call void @llvm.lifetime.end(i64 1048592, i8* %194) #2
  %313 = invoke i32 @gzclose(i8* %177)
          to label %314 unwind label %145

; <label>:314                                     ; preds = %312
  %315 = load i32* %1, align 4, !tbaa !36
  %316 = icmp sgt i32 %315, 2
  br i1 %316, label %317, label %321

; <label>:317                                     ; preds = %314
  %318 = getelementptr inbounds i8** %argv, i64 2
  %319 = load i8** %318, align 8, !tbaa !47
  %320 = invoke %struct.__sFILE* @"\01_fopen"(i8* %319, i8* getelementptr inbounds ([3 x i8]* @.str23, i64 0, i64 0))
          to label %321 unwind label %145

; <label>:321                                     ; preds = %317, %314
  %322 = phi %struct.__sFILE* [ %320, %317 ], [ null, %314 ]
  %323 = load i32* %108, align 8, !tbaa !51
  %324 = icmp sgt i32 %323, 0
  br i1 %324, label %325, label %331

; <label>:325                                     ; preds = %321
  %326 = load i32* %202, align 8, !tbaa !63
  %327 = call i32 (i8*, ...)* @printf(i8* getelementptr inbounds ([73 x i8]* @.str24, i64 0, i64 0), i32 %326)
  %328 = getelementptr inbounds %"class.Minisat::Solver"* %S, i64 0, i32 32, i32 1
  %329 = load i32* %328, align 8, !tbaa !64
  %330 = call i32 (i8*, ...)* @printf(i8* getelementptr inbounds ([73 x i8]* @.str25, i64 0, i64 0), i32 %329)
  br label %331

; <label>:331                                     ; preds = %325, %321
  %332 = bitcast %struct.rusage* %ru.i21 to i8*
  call void @llvm.lifetime.start(i64 144, i8* %332) #2
  %333 = invoke i32 @getrusage(i32 0, %struct.rusage* %ru.i21)
          to label %334 unwind label %145

; <label>:334                                     ; preds = %331
  %335 = getelementptr inbounds %struct.rusage* %ru.i21, i64 0, i32 0, i32 0
  %336 = load i64* %335, align 8, !tbaa !3
  %337 = getelementptr inbounds %struct.rusage* %ru.i21, i64 0, i32 0, i32 1
  %338 = load i32* %337, align 8, !tbaa !10
  call void @llvm.lifetime.end(i64 144, i8* %332) #2
  %339 = load i32* %108, align 8, !tbaa !51
  %340 = icmp sgt i32 %339, 0
  br i1 %340, label %341, label %348

; <label>:341                                     ; preds = %334
  %342 = sitofp i32 %338 to double
  %343 = fdiv double %342, 1.000000e+06
  %344 = sitofp i64 %336 to double
  %345 = fadd double %344, %343
  %346 = fsub double %345, %106
  %347 = call i32 (i8*, ...)* @printf(i8* getelementptr inbounds ([75 x i8]* @.str26, i64 0, i64 0), double %346)
  %puts49 = call i32 @puts(i8* getelementptr inbounds ([80 x i8]* @str65, i64 0, i64 0))
  br label %348

; <label>:348                                     ; preds = %341, %334
  %349 = invoke void (i32)* (i32, void (i32)*)* @signal(i32 2, void (i32)* @_ZL16SIGINT_interrupti)
          to label %350 unwind label %145

; <label>:350                                     ; preds = %348
  %351 = invoke void (i32)* (i32, void (i32)*)* @signal(i32 24, void (i32)* @_ZL16SIGINT_interrupti)
          to label %352 unwind label %145

; <label>:352                                     ; preds = %350
  %353 = invoke zeroext i1 @_ZN7Minisat6Solver8simplifyEv(%"class.Minisat::Solver"* %S)
          to label %354 unwind label %145

; <label>:354                                     ; preds = %352
  br i1 %353, label %367, label %355

; <label>:355                                     ; preds = %354
  %356 = icmp eq %struct.__sFILE* %322, null
  br i1 %356, label %360, label %357

; <label>:357                                     ; preds = %355
  %358 = call i64 @fwrite(i8* getelementptr inbounds ([7 x i8]* @.str27, i64 0, i64 0), i64 6, i64 1, %struct.__sFILE* %322)
  %359 = call i32 @fclose(%struct.__sFILE* %322)
  br label %360

; <label>:360                                     ; preds = %357, %355
  %361 = load i32* %108, align 8, !tbaa !51
  %362 = icmp sgt i32 %361, 0
  br i1 %362, label %363, label %365

; <label>:363                                     ; preds = %360
  %puts46 = call i32 @puts(i8* getelementptr inbounds ([80 x i8]* @str61, i64 0, i64 0))
  %puts47 = call i32 @puts(i8* getelementptr inbounds ([27 x i8]* @str62, i64 0, i64 0))
  invoke void @_Z10printStatsRN7Minisat6SolverE(%"class.Minisat::Solver"* %S)
          to label %364 unwind label %145

; <label>:364                                     ; preds = %363
  %putchar = call i32 @putchar(i32 10)
  br label %365

; <label>:365                                     ; preds = %364, %360
  %puts45 = call i32 @puts(i8* getelementptr inbounds ([14 x i8]* @str60, i64 0, i64 0))
  invoke void @exit(i32 20) #16
          to label %366 unwind label %145

; <label>:366                                     ; preds = %365
  unreachable

; <label>:367                                     ; preds = %354
  %368 = getelementptr inbounds %"class.Minisat::Solver"* %S, i64 0, i32 47
  %369 = getelementptr inbounds %"class.Minisat::vec.0"* %368, i64 0, i32 0
  %370 = load %"struct.Minisat::Lit"** %369, align 8, !tbaa !60
  %371 = icmp eq %"struct.Minisat::Lit"* %370, null
  %.phi.trans.insert.i.i = getelementptr inbounds %"class.Minisat::Solver"* %S, i64 0, i32 47, i32 1
  br i1 %371, label %_ZN7Minisat3vecINS_3LitEE5clearEb.exit.i.i, label %_ZN7Minisat3vecINS_3LitEE5clearEb.exit.i.i.thread

_ZN7Minisat3vecINS_3LitEE5clearEb.exit.i.i.thread: ; preds = %367
  store i32 0, i32* %.phi.trans.insert.i.i, align 8, !tbaa !61
  br label %_ZNK7Minisat3vecINS_3LitEE6copyToERS2_.exit.i

_ZN7Minisat3vecINS_3LitEE5clearEb.exit.i.i:       ; preds = %367
  %.pre.i.i24 = load i32* %.phi.trans.insert.i.i, align 8, !tbaa !61
  %372 = icmp slt i32 %.pre.i.i24, 0
  br i1 %372, label %373, label %_ZNK7Minisat3vecINS_3LitEE6copyToERS2_.exit.i

; <label>:373                                     ; preds = %_ZN7Minisat3vecINS_3LitEE5clearEb.exit.i.i
  invoke void @_ZN7Minisat3vecINS_3LitEE8capacityEi(%"class.Minisat::vec.0"* %368, i32 0)
          to label %.noexc27 unwind label %_ZN7Minisat3vecINS_3LitEED1Ev.exit

.noexc27:                                         ; preds = %373
  %374 = load i32* %.phi.trans.insert.i.i, align 8, !tbaa !61
  %375 = icmp slt i32 %374, 0
  br i1 %375, label %.lr.ph.i.i.i25, label %._crit_edge.i.i.i26

.lr.ph.i.i.i25:                                   ; preds = %.noexc27
  %376 = sext i32 %374 to i64
  br label %377

; <label>:377                                     ; preds = %383, %.lr.ph.i.i.i25
  %indvars.iv.i.i.i = phi i64 [ %376, %.lr.ph.i.i.i25 ], [ %indvars.iv.next.i.i.i, %383 ]
  %378 = load %"struct.Minisat::Lit"** %369, align 8, !tbaa !60
  %379 = getelementptr inbounds %"struct.Minisat::Lit"* %378, i64 %indvars.iv.i.i.i
  %380 = icmp eq %"struct.Minisat::Lit"* %379, null
  br i1 %380, label %383, label %381

; <label>:381                                     ; preds = %377
  %382 = getelementptr inbounds %"struct.Minisat::Lit"* %379, i64 0, i32 0
  store i32 0, i32* %382, align 4
  br label %383

; <label>:383                                     ; preds = %381, %377
  %indvars.iv.next.i.i.i = add nsw i64 %indvars.iv.i.i.i, 1
  %384 = trunc i64 %indvars.iv.next.i.i.i to i32
  %385 = icmp slt i32 %384, 0
  br i1 %385, label %377, label %._crit_edge.i.i.i26

._crit_edge.i.i.i26:                              ; preds = %383, %.noexc27
  store i32 0, i32* %.phi.trans.insert.i.i, align 8, !tbaa !61
  br label %_ZNK7Minisat3vecINS_3LitEE6copyToERS2_.exit.i

_ZNK7Minisat3vecINS_3LitEE6copyToERS2_.exit.i:    ; preds = %._crit_edge.i.i.i26, %_ZN7Minisat3vecINS_3LitEE5clearEb.exit.i.i, %_ZN7Minisat3vecINS_3LitEE5clearEb.exit.i.i.thread
  %386 = invoke i8 @_ZN7Minisat6Solver6solve_Ev(%"class.Minisat::Solver"* %S)
          to label %_ZN7Minisat6Solver12solveLimitedERKNS_3vecINS_3LitEEE.exit unwind label %_ZN7Minisat3vecINS_3LitEED1Ev.exit

_ZN7Minisat6Solver12solveLimitedERKNS_3vecINS_3LitEEE.exit: ; preds = %_ZNK7Minisat3vecINS_3LitEE6copyToERS2_.exit.i
  %387 = load i32* %108, align 8, !tbaa !51
  %388 = icmp sgt i32 %387, 0
  br i1 %388, label %389, label %393

; <label>:389                                     ; preds = %_ZN7Minisat6Solver12solveLimitedERKNS_3vecINS_3LitEEE.exit
  invoke void @_Z10printStatsRN7Minisat6SolverE(%"class.Minisat::Solver"* %S)
          to label %390 unwind label %_ZN7Minisat3vecINS_3LitEED1Ev.exit

; <label>:390                                     ; preds = %389
  %putchar48 = call i32 @putchar(i32 10)
  br label %393

_ZN7Minisat3vecINS_3LitEED1Ev.exit:               ; preds = %389, %_ZNK7Minisat3vecINS_3LitEE6copyToERS2_.exit.i, %373
  %391 = landingpad { i8*, i32 } personality i8* bitcast (i32 (...)* @__gxx_personality_v0 to i8*)
          cleanup
          catch i8* bitcast ({ i8*, i8* }* @_ZTIN7Minisat20OutOfMemoryExceptionE to i8*)
  %392 = extractvalue { i8*, i32 } %391, 0
  br label %442

; <label>:393                                     ; preds = %390, %_ZN7Minisat6Solver12solveLimitedERKNS_3vecINS_3LitEEE.exit
  %394 = icmp eq i8 %386, 0
  br i1 %394, label %399, label %395

; <label>:395                                     ; preds = %393
  %396 = icmp eq i8 %386, 1
  %397 = select i1 %396, [15 x i8]* @.str31, [15 x i8]* @.str33
  %398 = getelementptr inbounds [15 x i8]* %397, i64 0, i64 0
  br label %399

; <label>:399                                     ; preds = %395, %393
  %400 = phi i8* [ %398, %395 ], [ getelementptr inbounds ([13 x i8]* @.str32, i64 0, i64 0), %393 ]
  %401 = call i32 (i8*, ...)* @printf(i8* %400)
  %402 = icmp eq %struct.__sFILE* %322, null
  br i1 %402, label %437, label %403

; <label>:403                                     ; preds = %399
  br i1 %394, label %404, label %429

; <label>:404                                     ; preds = %403
  %405 = call i64 @fwrite(i8* getelementptr inbounds ([5 x i8]* @.str34, i64 0, i64 0), i64 4, i64 1, %struct.__sFILE* %322)
  %406 = load i32* %202, align 8, !tbaa !63
  %407 = icmp sgt i32 %406, 0
  br i1 %407, label %.lr.ph, label %._crit_edge

.lr.ph:                                           ; preds = %404
  %408 = getelementptr inbounds %"class.Minisat::Solver"* %S, i64 0, i32 1, i32 0
  br label %409

; <label>:409                                     ; preds = %425, %.lr.ph
  %410 = phi i32 [ %406, %.lr.ph ], [ %426, %425 ]
  %indvars.iv = phi i64 [ 0, %.lr.ph ], [ %indvars.iv.next.pre-phi, %425 ]
  %411 = load %"class.Minisat::lbool"** %408, align 8, !tbaa !65
  %412 = getelementptr inbounds %"class.Minisat::lbool"* %411, i64 %indvars.iv, i32 0
  %413 = load i8* %412, align 1, !tbaa !66
  %414 = and i8 %413, 2
  %415 = icmp eq i8 %414, 0
  br i1 %415, label %416, label %._crit_edge145

._crit_edge145:                                   ; preds = %409
  %indvars.iv.next.pre = add nuw nsw i64 %indvars.iv, 1
  %.pre146 = trunc i64 %indvars.iv.next.pre to i32
  br label %425

; <label>:416                                     ; preds = %409
  %417 = trunc i64 %indvars.iv to i32
  %418 = icmp eq i32 %417, 0
  %419 = select i1 %418, i8* getelementptr inbounds ([1 x i8]* @.str36, i64 0, i64 0), i8* getelementptr inbounds ([2 x i8]* @.str37, i64 0, i64 0)
  %420 = icmp eq i8 %413, 0
  %421 = select i1 %420, i8* getelementptr inbounds ([1 x i8]* @.str36, i64 0, i64 0), i8* getelementptr inbounds ([2 x i8]* @.str38, i64 0, i64 0)
  %422 = add nsw i64 %indvars.iv, 1
  %423 = trunc i64 %422 to i32
  %424 = call i32 (%struct.__sFILE*, i8*, ...)* @fprintf(%struct.__sFILE* %322, i8* getelementptr inbounds ([7 x i8]* @.str35, i64 0, i64 0), i8* %419, i8* %421, i32 %423)
  %.pre = load i32* %202, align 8, !tbaa !63
  br label %425

; <label>:425                                     ; preds = %416, %._crit_edge145
  %.pre-phi = phi i32 [ %.pre146, %._crit_edge145 ], [ %423, %416 ]
  %indvars.iv.next.pre-phi = phi i64 [ %indvars.iv.next.pre, %._crit_edge145 ], [ %422, %416 ]
  %426 = phi i32 [ %410, %._crit_edge145 ], [ %.pre, %416 ]
  %427 = icmp slt i32 %.pre-phi, %426
  br i1 %427, label %409, label %._crit_edge

._crit_edge:                                      ; preds = %425, %404
  %428 = call i64 @fwrite(i8* getelementptr inbounds ([4 x i8]* @.str39, i64 0, i64 0), i64 3, i64 1, %struct.__sFILE* %322)
  br label %435

; <label>:429                                     ; preds = %403
  %430 = icmp eq i8 %386, 1
  br i1 %430, label %431, label %433

; <label>:431                                     ; preds = %429
  %432 = call i64 @fwrite(i8* getelementptr inbounds ([7 x i8]* @.str27, i64 0, i64 0), i64 6, i64 1, %struct.__sFILE* %322)
  br label %435

; <label>:433                                     ; preds = %429
  %434 = call i64 @fwrite(i8* getelementptr inbounds ([7 x i8]* @.str40, i64 0, i64 0), i64 6, i64 1, %struct.__sFILE* %322)
  br label %435

; <label>:435                                     ; preds = %433, %431, %._crit_edge
  %436 = call i32 @fclose(%struct.__sFILE* %322)
  br label %437

; <label>:437                                     ; preds = %435, %399
  br i1 %394, label %_ZN7Minisat3vecINS_3LitEED1Ev.exit31, label %438

; <label>:438                                     ; preds = %437
  %439 = icmp eq i8 %386, 1
  %440 = select i1 %439, i32 20, i32 0
  br label %_ZN7Minisat3vecINS_3LitEED1Ev.exit31

_ZN7Minisat3vecINS_3LitEED1Ev.exit31:             ; preds = %438, %437
  %441 = phi i32 [ %440, %438 ], [ 10, %437 ]
  invoke void @_ZN7Minisat6SolverD1Ev(%"class.Minisat::Solver"* %S)
          to label %444 unwind label %141

; <label>:442                                     ; preds = %_ZN7Minisat3vecINS_3LitEED1Ev.exit, %.body
  %eh.lpad-body.sink = phi { i8*, i32 } [ %eh.lpad-body, %.body ], [ %391, %_ZN7Minisat3vecINS_3LitEED1Ev.exit ]
  %.0 = phi i8* [ %147, %.body ], [ %392, %_ZN7Minisat3vecINS_3LitEED1Ev.exit ]
  %443 = extractvalue { i8*, i32 } %eh.lpad-body.sink, 1
  invoke void @_ZN7Minisat6SolverD1Ev(%"class.Minisat::Solver"* %S)
          to label %445 unwind label %458

; <label>:444                                     ; preds = %_ZN7Minisat3vecINS_3LitEED1Ev.exit31
  call void @llvm.lifetime.end(i64 688, i8* %94) #2
  call void @llvm.lifetime.end(i64 56, i8* %63) #2
  call void @llvm.lifetime.end(i64 56, i8* %33) #2
  call void @llvm.lifetime.end(i64 56, i8* %3) #2
  ret i32 %441

; <label>:445                                     ; preds = %442, %141, %137, %133, %129
  %.46 = phi i32 [ %132, %129 ], [ %136, %133 ], [ %140, %137 ], [ %443, %442 ], [ %144, %141 ]
  %.4 = phi i8* [ %131, %129 ], [ %135, %133 ], [ %139, %137 ], [ %.0, %442 ], [ %143, %141 ]
  %446 = call i32 @llvm.eh.typeid.for(i8* bitcast ({ i8*, i8* }* @_ZTIN7Minisat20OutOfMemoryExceptionE to i8*)) #2
  %447 = icmp eq i32 %.46, %446
  br i1 %447, label %448, label %455

; <label>:448                                     ; preds = %445
  %449 = call i8* @__cxa_begin_catch(i8* %.4) #2
  %puts = call i32 @puts(i8* getelementptr inbounds ([80 x i8]* @str61, i64 0, i64 0))
  %puts44 = call i32 @puts(i8* getelementptr inbounds ([14 x i8]* @str59, i64 0, i64 0))
  invoke void @exit(i32 0) #16
          to label %450 unwind label %451

; <label>:450                                     ; preds = %448
  unreachable

; <label>:451                                     ; preds = %448
  %452 = landingpad { i8*, i32 } personality i8* bitcast (i32 (...)* @__gxx_personality_v0 to i8*)
          cleanup
  %453 = extractvalue { i8*, i32 } %452, 0
  %454 = extractvalue { i8*, i32 } %452, 1
  invoke void @__cxa_end_catch()
          to label %455 unwind label %458

; <label>:455                                     ; preds = %451, %445
  %.57 = phi i32 [ %454, %451 ], [ %.46, %445 ]
  %.5 = phi i8* [ %453, %451 ], [ %.4, %445 ]
  %456 = insertvalue { i8*, i32 } undef, i8* %.5, 0
  %457 = insertvalue { i8*, i32 } %456, i32 %.57, 1
  resume { i8*, i32 } %457

; <label>:458                                     ; preds = %451, %442
  %459 = landingpad { i8*, i32 } personality i8* bitcast (i32 (...)* @__gxx_personality_v0 to i8*)
          catch i8* null
  %460 = extractvalue { i8*, i32 } %459, 0
  call void @__clang_call_terminate(i8* %460) #17
  unreachable
}

declare i32 @__gxx_personality_v0(...)

; Function Attrs: nounwind
declare void @llvm.lifetime.start(i64, i8* nocapture) #2

declare void (i32)* @signal(i32, void (i32)*) #3

; Function Attrs: noreturn ssp uwtable
define internal void @_ZL11SIGINT_exiti(i32 %signum) #4 {
  %putchar = tail call i32 @putchar(i32 10)
  %puts = tail call i32 @puts(i8* getelementptr inbounds ([20 x i8]* @str57, i64 0, i64 0))
  %1 = load %"class.Minisat::Solver"** @_ZL6solver, align 8, !tbaa !47
  %2 = getelementptr inbounds %"class.Minisat::Solver"* %1, i64 0, i32 3
  %3 = load i32* %2, align 4, !tbaa !51
  %4 = icmp sgt i32 %3, 0
  br i1 %4, label %5, label %6

; <label>:5                                       ; preds = %0
  tail call void @_Z10printStatsRN7Minisat6SolverE(%"class.Minisat::Solver"* %1)
  %putchar1 = tail call i32 @putchar(i32 10)
  %puts2 = tail call i32 @puts(i8* getelementptr inbounds ([20 x i8]* @str57, i64 0, i64 0))
  br label %6

; <label>:6                                       ; preds = %5, %0
  tail call void @_exit(i32 1) #16
  unreachable
}

declare i32 @"\01_getrlimit"(i32, %struct.rlimit*) #3

declare i32 @"\01_setrlimit"(i32, %struct.rlimit*) #3

declare i8* @gzdopen(i32, i8*) #3

declare i8* @gzopen(i8*, i8*) #3

; Function Attrs: noreturn
declare void @exit(i32) #5

declare i32 @gzclose(i8*) #3

declare %struct.__sFILE* @"\01_fopen"(i8*, i8*) #3

; Function Attrs: nounwind ssp uwtable
define internal void @_ZL16SIGINT_interrupti(i32 %signum) #6 {
  %1 = load %"class.Minisat::Solver"** @_ZL6solver, align 8, !tbaa !47
  %2 = getelementptr inbounds %"class.Minisat::Solver"* %1, i64 0, i32 62
  store i8 1, i8* %2, align 1, !tbaa !68
  ret void
}

; Function Attrs: nounwind
declare i32 @fprintf(%struct.__sFILE* nocapture, i8* nocapture readonly, ...) #1

; Function Attrs: nounwind
declare i32 @fclose(%struct.__sFILE* nocapture) #1

; Function Attrs: noinline noreturn nounwind
define linkonce_odr hidden void @__clang_call_terminate(i8*) #7 {
  %2 = tail call i8* @__cxa_begin_catch(i8* %0) #2
  tail call void @_ZSt9terminatev() #17
  unreachable
}

declare i8* @__cxa_begin_catch(i8*)

declare void @_ZSt9terminatev()

; Function Attrs: nounwind
declare void @llvm.lifetime.end(i64, i8* nocapture) #2

; Function Attrs: inlinehint nounwind readnone ssp uwtable
define linkonce_odr void @_ZN7Minisat9IntOptionD1Ev(%"class.Minisat::IntOption"* nocapture %this) unnamed_addr #8 align 2 {
  ret void
}

; Function Attrs: nounwind readnone
declare i32 @llvm.eh.typeid.for(i8*) #9

declare void @__cxa_end_catch()

; Function Attrs: ssp uwtable
define internal fastcc i32 @_ZN7MinisatL8parseIntINS_12StreamBufferEEEiRT_(%"class.Minisat::StreamBuffer"* %in) #0 {
  %1 = getelementptr inbounds %"class.Minisat::StreamBuffer"* %in, i64 0, i32 2
  %2 = getelementptr inbounds %"class.Minisat::StreamBuffer"* %in, i64 0, i32 3
  %3 = getelementptr inbounds %"class.Minisat::StreamBuffer"* %in, i64 0, i32 0
  %4 = getelementptr inbounds %"class.Minisat::StreamBuffer"* %in, i64 0, i32 1, i64 0
  %.pre.i = load i32* %2, align 4, !tbaa !57
  br label %_ZN7Minisat12StreamBufferppEv.exit.i.outer

_ZN7Minisat12StreamBufferppEv.exit.i.outer:       ; preds = %16, %0
  %5 = phi i32 [ %.pre.i, %0 ], [ %18, %16 ]
  %.pre = load i32* %1, align 4, !tbaa !58
  br label %_ZN7Minisat12StreamBufferppEv.exit.i

_ZN7Minisat12StreamBufferppEv.exit.i:             ; preds = %.critedge.i, %_ZN7Minisat12StreamBufferppEv.exit.i.outer
  %6 = phi i32 [ %.pre, %_ZN7Minisat12StreamBufferppEv.exit.i.outer ], [ %14, %.critedge.i ]
  %7 = icmp slt i32 %6, %5
  br i1 %7, label %_ZNK7Minisat12StreamBufferdeEv.exit.i, label %_ZN7Minisat12StreamBufferppEv.exit1

_ZNK7Minisat12StreamBufferdeEv.exit.i:            ; preds = %_ZN7Minisat12StreamBufferppEv.exit.i
  %8 = sext i32 %6 to i64
  %9 = getelementptr inbounds %"class.Minisat::StreamBuffer"* %in, i64 0, i32 1, i64 %8
  %10 = load i8* %9, align 1, !tbaa !59
  %11 = icmp ugt i8 %10, 8
  br i1 %11, label %_ZNK7Minisat12StreamBufferdeEv.exit1.i, label %_ZNK7Minisat12StreamBufferdeEv.exit

_ZNK7Minisat12StreamBufferdeEv.exit1.i:           ; preds = %_ZNK7Minisat12StreamBufferdeEv.exit.i
  %12 = icmp ult i8 %10, 14
  %13 = icmp eq i8 %10, 32
  %or.cond = or i1 %12, %13
  br i1 %or.cond, label %.critedge.i, label %_ZN7MinisatL14skipWhitespaceINS_12StreamBufferEEEvRT_.exit

.critedge.i:                                      ; preds = %_ZNK7Minisat12StreamBufferdeEv.exit1.i
  %14 = add nsw i32 %6, 1
  store i32 %14, i32* %1, align 4, !tbaa !58
  %15 = icmp slt i32 %14, %5
  br i1 %15, label %_ZN7Minisat12StreamBufferppEv.exit.i, label %16

; <label>:16                                      ; preds = %.critedge.i
  store i32 0, i32* %1, align 4, !tbaa !58
  %17 = load i8** %3, align 8, !tbaa !55
  %18 = tail call i32 @gzread(i8* %17, i8* %4, i32 1048576)
  store i32 %18, i32* %2, align 4, !tbaa !57
  br label %_ZN7Minisat12StreamBufferppEv.exit.i.outer

_ZN7MinisatL14skipWhitespaceINS_12StreamBufferEEEvRT_.exit: ; preds = %_ZNK7Minisat12StreamBufferdeEv.exit1.i
  br i1 %7, label %_ZNK7Minisat12StreamBufferdeEv.exit, label %_ZN7Minisat12StreamBufferppEv.exit1

_ZNK7Minisat12StreamBufferdeEv.exit:              ; preds = %_ZN7MinisatL14skipWhitespaceINS_12StreamBufferEEEvRT_.exit, %_ZNK7Minisat12StreamBufferdeEv.exit.i
  %19 = sext i32 %6 to i64
  %20 = getelementptr inbounds %"class.Minisat::StreamBuffer"* %in, i64 0, i32 1, i64 %19
  %21 = load i8* %20, align 1, !tbaa !59
  %22 = icmp eq i8 %21, 45
  br i1 %22, label %23, label %_ZNK7Minisat12StreamBufferdeEv.exit.thread

; <label>:23                                      ; preds = %_ZNK7Minisat12StreamBufferdeEv.exit
  %24 = add nsw i32 %6, 1
  store i32 %24, i32* %1, align 4, !tbaa !58
  %25 = icmp slt i32 %24, %5
  br i1 %25, label %_ZN7Minisat12StreamBufferppEv.exit1, label %26

; <label>:26                                      ; preds = %23
  store i32 0, i32* %1, align 4, !tbaa !58
  %27 = load i8** %3, align 8, !tbaa !55
  %28 = tail call i32 @gzread(i8* %27, i8* %4, i32 1048576)
  store i32 %28, i32* %2, align 4, !tbaa !57
  br label %_ZN7Minisat12StreamBufferppEv.exit1

_ZNK7Minisat12StreamBufferdeEv.exit.thread:       ; preds = %_ZNK7Minisat12StreamBufferdeEv.exit
  br i1 %7, label %_ZNK7Minisat12StreamBufferdeEv.exit2, label %_ZN7Minisat12StreamBufferppEv.exit1

_ZNK7Minisat12StreamBufferdeEv.exit2:             ; preds = %_ZNK7Minisat12StreamBufferdeEv.exit.thread
  %29 = sext i32 %6 to i64
  %30 = getelementptr inbounds %"class.Minisat::StreamBuffer"* %in, i64 0, i32 1, i64 %29
  %31 = load i8* %30, align 1, !tbaa !59
  %32 = icmp eq i8 %31, 43
  br i1 %32, label %33, label %_ZN7Minisat12StreamBufferppEv.exit1

; <label>:33                                      ; preds = %_ZNK7Minisat12StreamBufferdeEv.exit2
  %34 = add nsw i32 %6, 1
  store i32 %34, i32* %1, align 4, !tbaa !58
  %35 = icmp slt i32 %34, %5
  br i1 %35, label %_ZN7Minisat12StreamBufferppEv.exit1, label %36

; <label>:36                                      ; preds = %33
  store i32 0, i32* %1, align 4, !tbaa !58
  %37 = load i8** %3, align 8, !tbaa !55
  %38 = tail call i32 @gzread(i8* %37, i8* %4, i32 1048576)
  store i32 %38, i32* %2, align 4, !tbaa !57
  br label %_ZN7Minisat12StreamBufferppEv.exit1

_ZN7Minisat12StreamBufferppEv.exit1:              ; preds = %36, %33, %_ZNK7Minisat12StreamBufferdeEv.exit2, %_ZNK7Minisat12StreamBufferdeEv.exit.thread, %26, %23, %_ZN7MinisatL14skipWhitespaceINS_12StreamBufferEEEvRT_.exit, %_ZN7Minisat12StreamBufferppEv.exit.i
  %39 = phi i32 [ %5, %_ZNK7Minisat12StreamBufferdeEv.exit2 ], [ %5, %23 ], [ %28, %26 ], [ %5, %33 ], [ %38, %36 ], [ %5, %_ZNK7Minisat12StreamBufferdeEv.exit.thread ], [ %5, %_ZN7MinisatL14skipWhitespaceINS_12StreamBufferEEEvRT_.exit ], [ %5, %_ZN7Minisat12StreamBufferppEv.exit.i ]
  %neg.0 = phi i1 [ false, %_ZNK7Minisat12StreamBufferdeEv.exit2 ], [ true, %23 ], [ true, %26 ], [ false, %33 ], [ false, %36 ], [ false, %_ZNK7Minisat12StreamBufferdeEv.exit.thread ], [ false, %_ZN7MinisatL14skipWhitespaceINS_12StreamBufferEEEvRT_.exit ], [ false, %_ZN7Minisat12StreamBufferppEv.exit.i ]
  %40 = load i32* %1, align 4, !tbaa !58
  %41 = icmp slt i32 %40, %39
  br i1 %41, label %_ZNK7Minisat12StreamBufferdeEv.exit8, label %_ZNK7Minisat12StreamBufferdeEv.exit8.thread.thread16

_ZNK7Minisat12StreamBufferdeEv.exit8.thread.thread16: ; preds = %_ZN7Minisat12StreamBufferppEv.exit1
  %42 = load %struct.__sFILE** @__stderrp, align 8, !tbaa !47
  br label %_ZNK7Minisat12StreamBufferdeEv.exit6

_ZNK7Minisat12StreamBufferdeEv.exit8:             ; preds = %_ZN7Minisat12StreamBufferppEv.exit1
  %43 = sext i32 %40 to i64
  %44 = getelementptr inbounds %"class.Minisat::StreamBuffer"* %in, i64 0, i32 1, i64 %43
  %45 = load i8* %44, align 1, !tbaa !59
  %46 = icmp ult i8 %45, 48
  br i1 %46, label %_ZNK7Minisat12StreamBufferdeEv.exit8.thread.thread, label %_ZNK7Minisat12StreamBufferdeEv.exit7

_ZNK7Minisat12StreamBufferdeEv.exit8.thread.thread: ; preds = %_ZNK7Minisat12StreamBufferdeEv.exit8
  %47 = load %struct.__sFILE** @__stderrp, align 8, !tbaa !47
  br label %50

_ZNK7Minisat12StreamBufferdeEv.exit7:             ; preds = %_ZNK7Minisat12StreamBufferdeEv.exit8
  %48 = icmp ugt i8 %45, 57
  br i1 %48, label %_ZNK7Minisat12StreamBufferdeEv.exit8.thread, label %_ZNK7Minisat12StreamBufferdeEv.exit5

_ZNK7Minisat12StreamBufferdeEv.exit8.thread:      ; preds = %_ZNK7Minisat12StreamBufferdeEv.exit7
  %49 = load %struct.__sFILE** @__stderrp, align 8, !tbaa !47
  br i1 %41, label %50, label %_ZNK7Minisat12StreamBufferdeEv.exit6

; <label>:50                                      ; preds = %_ZNK7Minisat12StreamBufferdeEv.exit8.thread, %_ZNK7Minisat12StreamBufferdeEv.exit8.thread.thread
  %51 = phi %struct.__sFILE* [ %47, %_ZNK7Minisat12StreamBufferdeEv.exit8.thread.thread ], [ %49, %_ZNK7Minisat12StreamBufferdeEv.exit8.thread ]
  %52 = sext i32 %40 to i64
  %53 = getelementptr inbounds %"class.Minisat::StreamBuffer"* %in, i64 0, i32 1, i64 %52
  %54 = load i8* %53, align 1, !tbaa !59
  %55 = zext i8 %54 to i32
  br label %_ZNK7Minisat12StreamBufferdeEv.exit6

_ZNK7Minisat12StreamBufferdeEv.exit6:             ; preds = %50, %_ZNK7Minisat12StreamBufferdeEv.exit8.thread, %_ZNK7Minisat12StreamBufferdeEv.exit8.thread.thread16
  %56 = phi %struct.__sFILE* [ %51, %50 ], [ %49, %_ZNK7Minisat12StreamBufferdeEv.exit8.thread ], [ %42, %_ZNK7Minisat12StreamBufferdeEv.exit8.thread.thread16 ]
  %57 = phi i32 [ %55, %50 ], [ -1, %_ZNK7Minisat12StreamBufferdeEv.exit8.thread ], [ -1, %_ZNK7Minisat12StreamBufferdeEv.exit8.thread.thread16 ]
  %58 = tail call i32 (%struct.__sFILE*, i8*, ...)* @fprintf(%struct.__sFILE* %56, i8* getelementptr inbounds ([34 x i8]* @.str42, i64 0, i64 0), i32 %57)
  tail call void @exit(i32 3) #16
  unreachable

_ZNK7Minisat12StreamBufferdeEv.exit5:             ; preds = %_ZN7Minisat12StreamBufferppEv.exit.backedge._ZNK7Minisat12StreamBufferdeEv.exit5_crit_edge, %_ZNK7Minisat12StreamBufferdeEv.exit7
  %59 = phi i32 [ %73, %_ZN7Minisat12StreamBufferppEv.exit.backedge._ZNK7Minisat12StreamBufferdeEv.exit5_crit_edge ], [ %39, %_ZNK7Minisat12StreamBufferdeEv.exit7 ]
  %60 = phi i8 [ %.pre13, %_ZN7Minisat12StreamBufferppEv.exit.backedge._ZNK7Minisat12StreamBufferdeEv.exit5_crit_edge ], [ %45, %_ZNK7Minisat12StreamBufferdeEv.exit7 ]
  %61 = phi i32 [ %74, %_ZN7Minisat12StreamBufferppEv.exit.backedge._ZNK7Minisat12StreamBufferdeEv.exit5_crit_edge ], [ %40, %_ZNK7Minisat12StreamBufferdeEv.exit7 ]
  %val.010 = phi i32 [ %70, %_ZN7Minisat12StreamBufferppEv.exit.backedge._ZNK7Minisat12StreamBufferdeEv.exit5_crit_edge ], [ 0, %_ZNK7Minisat12StreamBufferdeEv.exit7 ]
  %62 = icmp ugt i8 %60, 47
  br i1 %62, label %63, label %.critedge

; <label>:63                                      ; preds = %_ZNK7Minisat12StreamBufferdeEv.exit5
  %64 = icmp slt i32 %61, %59
  br i1 %64, label %_ZNK7Minisat12StreamBufferdeEv.exit4, label %_ZNK7Minisat12StreamBufferdeEv.exit3

_ZNK7Minisat12StreamBufferdeEv.exit4:             ; preds = %63
  %65 = icmp ult i8 %60, 58
  br i1 %65, label %66, label %.critedge

; <label>:66                                      ; preds = %_ZNK7Minisat12StreamBufferdeEv.exit4
  %67 = zext i8 %60 to i32
  %phitmp = add i32 %67, -48
  br label %_ZNK7Minisat12StreamBufferdeEv.exit3

_ZNK7Minisat12StreamBufferdeEv.exit3:             ; preds = %66, %63
  %68 = phi i32 [ %phitmp, %66 ], [ -49, %63 ]
  %69 = mul nsw i32 %val.010, 10
  %70 = add nsw i32 %68, %69
  %71 = add nsw i32 %61, 1
  store i32 %71, i32* %1, align 4, !tbaa !58
  %72 = icmp slt i32 %71, %59
  br i1 %72, label %_ZN7Minisat12StreamBufferppEv.exit.backedge, label %76

_ZN7Minisat12StreamBufferppEv.exit.backedge:      ; preds = %76, %_ZNK7Minisat12StreamBufferdeEv.exit3
  %73 = phi i32 [ %59, %_ZNK7Minisat12StreamBufferdeEv.exit3 ], [ %78, %76 ]
  %74 = phi i32 [ %71, %_ZNK7Minisat12StreamBufferdeEv.exit3 ], [ %.pre14, %76 ]
  %75 = icmp slt i32 %74, %73
  br i1 %75, label %_ZN7Minisat12StreamBufferppEv.exit.backedge._ZNK7Minisat12StreamBufferdeEv.exit5_crit_edge, label %.critedge

_ZN7Minisat12StreamBufferppEv.exit.backedge._ZNK7Minisat12StreamBufferdeEv.exit5_crit_edge: ; preds = %_ZN7Minisat12StreamBufferppEv.exit.backedge
  %.phi.trans.insert = sext i32 %74 to i64
  %.phi.trans.insert12 = getelementptr inbounds %"class.Minisat::StreamBuffer"* %in, i64 0, i32 1, i64 %.phi.trans.insert
  %.pre13 = load i8* %.phi.trans.insert12, align 1, !tbaa !59
  br label %_ZNK7Minisat12StreamBufferdeEv.exit5

; <label>:76                                      ; preds = %_ZNK7Minisat12StreamBufferdeEv.exit3
  store i32 0, i32* %1, align 4, !tbaa !58
  %77 = load i8** %3, align 8, !tbaa !55
  %78 = tail call i32 @gzread(i8* %77, i8* %4, i32 1048576)
  store i32 %78, i32* %2, align 4, !tbaa !57
  %.pre14 = load i32* %1, align 4, !tbaa !58
  br label %_ZN7Minisat12StreamBufferppEv.exit.backedge

.critedge:                                        ; preds = %_ZN7Minisat12StreamBufferppEv.exit.backedge, %_ZNK7Minisat12StreamBufferdeEv.exit4, %_ZNK7Minisat12StreamBufferdeEv.exit5
  %val.0.lcssa = phi i32 [ %val.010, %_ZNK7Minisat12StreamBufferdeEv.exit4 ], [ %val.010, %_ZNK7Minisat12StreamBufferdeEv.exit5 ], [ %70, %_ZN7Minisat12StreamBufferppEv.exit.backedge ]
  %79 = sub nsw i32 0, %val.0.lcssa
  %80 = select i1 %neg.0, i32 %79, i32 %val.0.lcssa
  ret i32 %80
}

; Function Attrs: ssp uwtable
define linkonce_odr void @_ZN7Minisat3vecINS_3LitEE8capacityEi(%"class.Minisat::vec.0"* nocapture %this, i32 %min_cap) #0 align 2 {
  %1 = getelementptr inbounds %"class.Minisat::vec.0"* %this, i64 0, i32 2
  %2 = load i32* %1, align 4, !tbaa !62
  %3 = icmp slt i32 %2, %min_cap
  br i1 %3, label %4, label %35

; <label>:4                                       ; preds = %0
  %5 = add i32 %min_cap, 1
  %6 = sub i32 %5, %2
  %7 = and i32 %6, -2
  %8 = ashr i32 %2, 1
  %9 = add nsw i32 %8, 2
  %10 = and i32 %9, -2
  %11 = sub nsw i32 %10, %7
  %12 = ashr i32 %11, 31
  %13 = and i32 %12, %7
  %14 = xor i32 %12, -1
  %15 = and i32 %10, %14
  %16 = add nsw i32 %13, %15
  %17 = sub nsw i32 2147483647, %2
  %18 = icmp sgt i32 %16, %17
  br i1 %18, label %33, label %19

; <label>:19                                      ; preds = %4
  %20 = getelementptr inbounds %"class.Minisat::vec.0"* %this, i64 0, i32 0
  %21 = load %"struct.Minisat::Lit"** %20, align 8, !tbaa !60
  %22 = bitcast %"struct.Minisat::Lit"* %21 to i8*
  %23 = add nsw i32 %16, %2
  store i32 %23, i32* %1, align 4, !tbaa !62
  %24 = sext i32 %23 to i64
  %25 = shl nsw i64 %24, 2
  %26 = tail call i8* @realloc(i8* %22, i64 %25)
  %27 = bitcast i8* %26 to %"struct.Minisat::Lit"*
  store %"struct.Minisat::Lit"* %27, %"struct.Minisat::Lit"** %20, align 8, !tbaa !60
  %28 = icmp eq i8* %26, null
  br i1 %28, label %29, label %35

; <label>:29                                      ; preds = %19
  %30 = tail call i32* @__error()
  %31 = load i32* %30, align 4, !tbaa !36
  %32 = icmp eq i32 %31, 12
  br i1 %32, label %33, label %35

; <label>:33                                      ; preds = %29, %4
  %34 = tail call i8* @__cxa_allocate_exception(i64 1) #2
  tail call void @__cxa_throw(i8* %34, i8* bitcast ({ i8*, i8* }* @_ZTIN7Minisat20OutOfMemoryExceptionE to i8*), i8* null) #16
  unreachable

; <label>:35                                      ; preds = %29, %19, %0
  ret void
}

; Function Attrs: nounwind
declare noalias i8* @realloc(i8* nocapture, i64) #1

declare i32* @__error() #3

declare i8* @__cxa_allocate_exception(i64)

declare void @__cxa_throw(i8*, i8*, i8*)

; Function Attrs: nounwind
declare void @free(i8* nocapture) #1

declare i32 @gzread(i8*, i8*, i32) #3

; Function Attrs: nounwind
declare void @llvm.memset.p0i8.i64(i8* nocapture, i8, i64, i32, i1) #2

; Function Attrs: noreturn
declare void @_exit(i32) #5

; Function Attrs: inlinehint nounwind ssp uwtable
define linkonce_odr void @_ZN7Minisat9IntOptionD0Ev(%"class.Minisat::IntOption"* %this) unnamed_addr #10 align 2 {
  %1 = bitcast %"class.Minisat::IntOption"* %this to i8*
  tail call void @_ZdlPv(i8* %1) #18
  ret void
}

; Function Attrs: ssp uwtable
define linkonce_odr zeroext i1 @_ZN7Minisat9IntOption5parseEPKc(%"class.Minisat::IntOption"* nocapture %this, i8* %str) unnamed_addr #0 align 2 {
.lr.ph.i:
  %end = alloca i8*, align 8
  %0 = load i8* %str, align 1, !tbaa !59
  %1 = icmp eq i8 %0, 45
  br i1 %1, label %2, label %_ZN7MinisatL5matchIPKcEEbRT_S2_.exit

; <label>:2                                       ; preds = %.lr.ph.i
  %3 = getelementptr inbounds i8* %str, i64 1
  %4 = getelementptr inbounds %"class.Minisat::IntOption"* %this, i64 0, i32 0, i32 1
  %5 = load i8** %4, align 8, !tbaa !39
  %6 = load i8* %5, align 1, !tbaa !59
  %7 = icmp eq i8 %6, 0
  br i1 %7, label %.lr.ph.i3, label %.lr.ph.i9

; <label>:8                                       ; preds = %.lr.ph.i9
  %9 = getelementptr inbounds i8* %5, i64 %indvars.iv.next.i8
  %10 = load i8* %9, align 1, !tbaa !59
  %11 = icmp eq i8 %10, 0
  %.sum = add i64 %indvars.iv.i7, 2
  %12 = getelementptr inbounds i8* %str, i64 %.sum
  br i1 %11, label %.lr.ph.i3, label %.lr.ph.i9

.lr.ph.i9:                                        ; preds = %8, %2
  %indvars.iv.i7 = phi i64 [ %indvars.iv.next.i8, %8 ], [ 0, %2 ]
  %13 = phi i8* [ %12, %8 ], [ %3, %2 ]
  %14 = phi i8 [ %10, %8 ], [ %6, %2 ]
  %15 = load i8* %13, align 1, !tbaa !59
  %16 = icmp eq i8 %15, %14
  %indvars.iv.next.i8 = add nuw nsw i64 %indvars.iv.i7, 1
  br i1 %16, label %8, label %_ZN7MinisatL5matchIPKcEEbRT_S2_.exit

.lr.ph.i3:                                        ; preds = %8, %2
  %str14.ph = phi i8* [ %3, %2 ], [ %12, %8 ]
  %17 = load i8* %str14.ph, align 1, !tbaa !59
  %18 = icmp eq i8 %17, 61
  br i1 %18, label %19, label %_ZN7MinisatL5matchIPKcEEbRT_S2_.exit

; <label>:19                                      ; preds = %.lr.ph.i3
  %20 = getelementptr inbounds i8* %str14.ph, i64 1
  %21 = call i64 @strtol(i8* %20, i8** %end, i32 10)
  %22 = trunc i64 %21 to i32
  %23 = load i8** %end, align 8, !tbaa !47
  %24 = icmp eq i8* %23, null
  br i1 %24, label %_ZN7MinisatL5matchIPKcEEbRT_S2_.exit, label %25

; <label>:25                                      ; preds = %19
  %26 = getelementptr inbounds %"class.Minisat::IntOption"* %this, i64 0, i32 1, i32 1
  %27 = load i32* %26, align 4, !tbaa !69
  %28 = icmp sgt i32 %22, %27
  br i1 %28, label %29, label %33

; <label>:29                                      ; preds = %25
  %30 = load %struct.__sFILE** @__stderrp, align 8, !tbaa !47
  %31 = load i8** %4, align 8, !tbaa !39
  %32 = tail call i32 (%struct.__sFILE*, i8*, ...)* @fprintf(%struct.__sFILE* %30, i8* getelementptr inbounds ([49 x i8]* @.str55, i64 0, i64 0), i8* %20, i8* %31)
  tail call void @exit(i32 1) #16
  unreachable

; <label>:33                                      ; preds = %25
  %34 = getelementptr inbounds %"class.Minisat::IntOption"* %this, i64 0, i32 1, i32 0
  %35 = load i32* %34, align 4, !tbaa !70
  %36 = icmp slt i32 %22, %35
  br i1 %36, label %37, label %41

; <label>:37                                      ; preds = %33
  %38 = load %struct.__sFILE** @__stderrp, align 8, !tbaa !47
  %39 = load i8** %4, align 8, !tbaa !39
  %40 = tail call i32 (%struct.__sFILE*, i8*, ...)* @fprintf(%struct.__sFILE* %38, i8* getelementptr inbounds ([49 x i8]* @.str56, i64 0, i64 0), i8* %20, i8* %39)
  tail call void @exit(i32 1) #16
  unreachable

; <label>:41                                      ; preds = %33
  %42 = getelementptr inbounds %"class.Minisat::IntOption"* %this, i64 0, i32 2
  store i32 %22, i32* %42, align 4, !tbaa !48
  br label %_ZN7MinisatL5matchIPKcEEbRT_S2_.exit

_ZN7MinisatL5matchIPKcEEbRT_S2_.exit:             ; preds = %41, %19, %.lr.ph.i3, %.lr.ph.i9, %.lr.ph.i
  %.0 = phi i1 [ true, %41 ], [ false, %19 ], [ false, %.lr.ph.i3 ], [ false, %.lr.ph.i ], [ false, %.lr.ph.i9 ]
  ret i1 %.0
}

; Function Attrs: nounwind ssp uwtable
define linkonce_odr void @_ZN7Minisat9IntOption4helpEb(%"class.Minisat::IntOption"* nocapture readonly %this, i1 zeroext %verbose) unnamed_addr #6 align 2 {
  %1 = load %struct.__sFILE** @__stderrp, align 8, !tbaa !47
  %2 = getelementptr inbounds %"class.Minisat::IntOption"* %this, i64 0, i32 0, i32 1
  %3 = load i8** %2, align 8, !tbaa !39
  %4 = getelementptr inbounds %"class.Minisat::IntOption"* %this, i64 0, i32 0, i32 4
  %5 = load i8** %4, align 8, !tbaa !43
  %6 = tail call i32 (%struct.__sFILE*, i8*, ...)* @fprintf(%struct.__sFILE* %1, i8* getelementptr inbounds ([18 x i8]* @.str47, i64 0, i64 0), i8* %3, i8* %5)
  %7 = getelementptr inbounds %"class.Minisat::IntOption"* %this, i64 0, i32 1, i32 0
  %8 = load i32* %7, align 4, !tbaa !70
  %9 = icmp eq i32 %8, -2147483648
  %10 = load %struct.__sFILE** @__stderrp, align 8, !tbaa !47
  br i1 %9, label %11, label %13

; <label>:11                                      ; preds = %0
  %12 = tail call i64 @fwrite(i8* getelementptr inbounds ([5 x i8]* @.str48, i64 0, i64 0), i64 4, i64 1, %struct.__sFILE* %10)
  br label %15

; <label>:13                                      ; preds = %0
  %14 = tail call i32 (%struct.__sFILE*, i8*, ...)* @fprintf(%struct.__sFILE* %10, i8* getelementptr inbounds ([4 x i8]* @.str49, i64 0, i64 0), i32 %8)
  br label %15

; <label>:15                                      ; preds = %13, %11
  %16 = load %struct.__sFILE** @__stderrp, align 8, !tbaa !47
  %17 = tail call i64 @fwrite(i8* getelementptr inbounds ([5 x i8]* @.str50, i64 0, i64 0), i64 4, i64 1, %struct.__sFILE* %16)
  %18 = getelementptr inbounds %"class.Minisat::IntOption"* %this, i64 0, i32 1, i32 1
  %19 = load i32* %18, align 4, !tbaa !69
  %20 = icmp eq i32 %19, 2147483647
  %21 = load %struct.__sFILE** @__stderrp, align 8, !tbaa !47
  br i1 %20, label %22, label %24

; <label>:22                                      ; preds = %15
  %23 = tail call i64 @fwrite(i8* getelementptr inbounds ([5 x i8]* @.str51, i64 0, i64 0), i64 4, i64 1, %struct.__sFILE* %21)
  br label %26

; <label>:24                                      ; preds = %15
  %25 = tail call i32 (%struct.__sFILE*, i8*, ...)* @fprintf(%struct.__sFILE* %21, i8* getelementptr inbounds ([4 x i8]* @.str49, i64 0, i64 0), i32 %19)
  br label %26

; <label>:26                                      ; preds = %24, %22
  %27 = load %struct.__sFILE** @__stderrp, align 8, !tbaa !47
  %28 = getelementptr inbounds %"class.Minisat::IntOption"* %this, i64 0, i32 2
  %29 = load i32* %28, align 4, !tbaa !48
  %30 = tail call i32 (%struct.__sFILE*, i8*, ...)* @fprintf(%struct.__sFILE* %27, i8* getelementptr inbounds ([17 x i8]* @.str52, i64 0, i64 0), i32 %29)
  br i1 %verbose, label %31, label %37

; <label>:31                                      ; preds = %26
  %32 = load %struct.__sFILE** @__stderrp, align 8, !tbaa !47
  %33 = getelementptr inbounds %"class.Minisat::IntOption"* %this, i64 0, i32 0, i32 2
  %34 = load i8** %33, align 8, !tbaa !41
  %35 = tail call i32 (%struct.__sFILE*, i8*, ...)* @fprintf(%struct.__sFILE* %32, i8* getelementptr inbounds ([13 x i8]* @.str53, i64 0, i64 0), i8* %34)
  %36 = load %struct.__sFILE** @__stderrp, align 8, !tbaa !47
  %fputc = tail call i32 @fputc(i32 10, %struct.__sFILE* %36)
  br label %37

; <label>:37                                      ; preds = %31, %26
  ret void
}

; Function Attrs: nounwind
declare i64 @strtol(i8* readonly, i8** nocapture, i32) #1

; Function Attrs: nobuiltin nounwind
declare void @_ZdlPv(i8*) #11

; Function Attrs: nounwind readnone ssp uwtable
define linkonce_odr void @_ZN7Minisat6OptionD1Ev(%"class.Minisat::Option"* nocapture %this) unnamed_addr #12 align 2 {
  ret void
}

; Function Attrs: nounwind ssp uwtable
define linkonce_odr void @_ZN7Minisat6OptionD0Ev(%"class.Minisat::Option"* %this) unnamed_addr #6 align 2 {
  %1 = bitcast %"class.Minisat::Option"* %this to i8*
  tail call void @_ZdlPv(i8* %1) #18
  ret void
}

declare void @__cxa_pure_virtual()

; Function Attrs: ssp uwtable
define linkonce_odr void @_ZN7Minisat3vecIPNS_6OptionEE8capacityEi(%"class.Minisat::vec.8"* nocapture %this, i32 %min_cap) #0 align 2 {
  %1 = getelementptr inbounds %"class.Minisat::vec.8"* %this, i64 0, i32 2
  %2 = load i32* %1, align 4, !tbaa !71
  %3 = icmp slt i32 %2, %min_cap
  br i1 %3, label %4, label %35

; <label>:4                                       ; preds = %0
  %5 = add i32 %min_cap, 1
  %6 = sub i32 %5, %2
  %7 = and i32 %6, -2
  %8 = ashr i32 %2, 1
  %9 = add nsw i32 %8, 2
  %10 = and i32 %9, -2
  %11 = sub nsw i32 %10, %7
  %12 = ashr i32 %11, 31
  %13 = and i32 %12, %7
  %14 = xor i32 %12, -1
  %15 = and i32 %10, %14
  %16 = add nsw i32 %13, %15
  %17 = sub nsw i32 2147483647, %2
  %18 = icmp sgt i32 %16, %17
  br i1 %18, label %33, label %19

; <label>:19                                      ; preds = %4
  %20 = getelementptr inbounds %"class.Minisat::vec.8"* %this, i64 0, i32 0
  %21 = load %"class.Minisat::Option"*** %20, align 8, !tbaa !46
  %22 = bitcast %"class.Minisat::Option"** %21 to i8*
  %23 = add nsw i32 %16, %2
  store i32 %23, i32* %1, align 4, !tbaa !71
  %24 = sext i32 %23 to i64
  %25 = shl nsw i64 %24, 3
  %26 = tail call i8* @realloc(i8* %22, i64 %25)
  %27 = bitcast i8* %26 to %"class.Minisat::Option"**
  store %"class.Minisat::Option"** %27, %"class.Minisat::Option"*** %20, align 8, !tbaa !46
  %28 = icmp eq i8* %26, null
  br i1 %28, label %29, label %35

; <label>:29                                      ; preds = %19
  %30 = tail call i32* @__error()
  %31 = load i32* %30, align 4, !tbaa !36
  %32 = icmp eq i32 %31, 12
  br i1 %32, label %33, label %35

; <label>:33                                      ; preds = %29, %4
  %34 = tail call i8* @__cxa_allocate_exception(i64 1) #2
  tail call void @__cxa_throw(i8* %34, i8* bitcast ({ i8*, i8* }* @_ZTIN7Minisat20OutOfMemoryExceptionE to i8*), i8* null) #16
  unreachable

; <label>:35                                      ; preds = %29, %19, %0
  ret void
}

; Function Attrs: nounwind
declare i32 @__cxa_guard_acquire(i64*) #2

; Function Attrs: nounwind ssp uwtable
define linkonce_odr void @_ZN7Minisat3vecIPNS_6OptionEED1Ev(%"class.Minisat::vec.8"* nocapture %this) unnamed_addr #6 align 2 {
  %1 = getelementptr inbounds %"class.Minisat::vec.8"* %this, i64 0, i32 0
  %2 = load %"class.Minisat::Option"*** %1, align 8, !tbaa !46
  %3 = icmp eq %"class.Minisat::Option"** %2, null
  br i1 %3, label %_ZN7Minisat3vecIPNS_6OptionEED2Ev.exit, label %.preheader.i.i

.preheader.i.i:                                   ; preds = %0
  %4 = getelementptr inbounds %"class.Minisat::vec.8"* %this, i64 0, i32 1
  store i32 0, i32* %4, align 4, !tbaa !44
  %5 = bitcast %"class.Minisat::Option"** %2 to i8*
  tail call void @free(i8* %5) #2
  store %"class.Minisat::Option"** null, %"class.Minisat::Option"*** %1, align 8, !tbaa !46
  %6 = getelementptr inbounds %"class.Minisat::vec.8"* %this, i64 0, i32 2
  store i32 0, i32* %6, align 4, !tbaa !71
  br label %_ZN7Minisat3vecIPNS_6OptionEED2Ev.exit

_ZN7Minisat3vecIPNS_6OptionEED2Ev.exit:           ; preds = %.preheader.i.i, %0
  ret void
}

; Function Attrs: nounwind
declare i32 @__cxa_atexit(void (i8*)*, i8*, i8*) #2

; Function Attrs: nounwind
declare void @__cxa_guard_release(i64*) #2

declare i32 @getrusage(i32, %struct.rusage*) #3

; Function Attrs: nounwind
declare i32 @putchar(i32) #2

; Function Attrs: nounwind
declare i32 @puts(i8* nocapture readonly) #2

; Function Attrs: nounwind
declare i64 @fwrite(i8* nocapture, i64, i64, %struct.__sFILE* nocapture) #2

; Function Attrs: nounwind
declare i32 @fputc(i32, %struct.__sFILE* nocapture) #2

; Function Attrs: ssp uwtable
define void @_ZN7Minisat6SolverC2Ev(%"class.Minisat::Solver"* %this) unnamed_addr #0 align 2 {
  %1 = getelementptr inbounds %"class.Minisat::Solver"* %this, i64 0, i32 0
  store i32 (...)** bitcast (i8** getelementptr inbounds ([5 x i8*]* @_ZTVN7Minisat6SolverE, i64 0, i64 2) to i32 (...)**), i32 (...)*** %1, align 8, !tbaa !37
  %2 = getelementptr inbounds %"class.Minisat::Solver"* %this, i64 0, i32 1
  %3 = getelementptr inbounds %"class.Minisat::Solver"* %this, i64 0, i32 4
  %4 = bitcast %"class.Minisat::vec"* %2 to i8*
  call void @llvm.memset.p0i8.i64(i8* %4, i8 0, i64 36, i32 8, i1 false)
  %5 = load double* getelementptr inbounds (%"class.Minisat::DoubleOption"* @_ZL13opt_var_decay, i64 0, i32 2), align 8, !tbaa !72
  store double %5, double* %3, align 8, !tbaa !73
  %6 = getelementptr inbounds %"class.Minisat::Solver"* %this, i64 0, i32 5
  %7 = load double* getelementptr inbounds (%"class.Minisat::DoubleOption"* @_ZL16opt_clause_decay, i64 0, i32 2), align 8, !tbaa !72
  store double %7, double* %6, align 8, !tbaa !74
  %8 = getelementptr inbounds %"class.Minisat::Solver"* %this, i64 0, i32 6
  %9 = load double* getelementptr inbounds (%"class.Minisat::DoubleOption"* @_ZL19opt_random_var_freq, i64 0, i32 2), align 8, !tbaa !72
  store double %9, double* %8, align 8, !tbaa !75
  %10 = getelementptr inbounds %"class.Minisat::Solver"* %this, i64 0, i32 7
  %11 = load double* getelementptr inbounds (%"class.Minisat::DoubleOption"* @_ZL15opt_random_seed, i64 0, i32 2), align 8, !tbaa !72
  store double %11, double* %10, align 8, !tbaa !76
  %12 = getelementptr inbounds %"class.Minisat::Solver"* %this, i64 0, i32 8
  %13 = load i8* getelementptr inbounds (%"class.Minisat::BoolOption"* @_ZL16opt_luby_restart, i64 0, i32 1), align 8, !tbaa !77, !range !78
  store i8 %13, i8* %12, align 1, !tbaa !79
  %14 = getelementptr inbounds %"class.Minisat::Solver"* %this, i64 0, i32 9
  %15 = load i32* getelementptr inbounds (%"class.Minisat::IntOption"* @_ZL14opt_ccmin_mode, i64 0, i32 2), align 8, !tbaa !36
  store i32 %15, i32* %14, align 4, !tbaa !80
  %16 = getelementptr inbounds %"class.Minisat::Solver"* %this, i64 0, i32 10
  %17 = load i32* getelementptr inbounds (%"class.Minisat::IntOption"* @_ZL16opt_phase_saving, i64 0, i32 2), align 8, !tbaa !36
  store i32 %17, i32* %16, align 4, !tbaa !81
  %18 = getelementptr inbounds %"class.Minisat::Solver"* %this, i64 0, i32 11
  store i8 0, i8* %18, align 1, !tbaa !82
  %19 = getelementptr inbounds %"class.Minisat::Solver"* %this, i64 0, i32 12
  %20 = load i8* getelementptr inbounds (%"class.Minisat::BoolOption"* @_ZL16opt_rnd_init_act, i64 0, i32 1), align 8, !tbaa !77, !range !78
  store i8 %20, i8* %19, align 1, !tbaa !83
  %21 = getelementptr inbounds %"class.Minisat::Solver"* %this, i64 0, i32 13
  %22 = load double* getelementptr inbounds (%"class.Minisat::DoubleOption"* @_ZL16opt_garbage_frac, i64 0, i32 2), align 8, !tbaa !72
  store double %22, double* %21, align 8, !tbaa !84
  %23 = getelementptr inbounds %"class.Minisat::Solver"* %this, i64 0, i32 14
  %24 = load i32* getelementptr inbounds (%"class.Minisat::IntOption"* @_ZL17opt_restart_first, i64 0, i32 2), align 8, !tbaa !36
  store i32 %24, i32* %23, align 4, !tbaa !85
  %25 = getelementptr inbounds %"class.Minisat::Solver"* %this, i64 0, i32 15
  %26 = load double* getelementptr inbounds (%"class.Minisat::DoubleOption"* @_ZL15opt_restart_inc, i64 0, i32 2), align 8, !tbaa !72
  store double %26, double* %25, align 8, !tbaa !86
  %27 = getelementptr inbounds %"class.Minisat::Solver"* %this, i64 0, i32 16
  store double 0x3FD5555555555555, double* %27, align 8, !tbaa !87
  %28 = getelementptr inbounds %"class.Minisat::Solver"* %this, i64 0, i32 17
  store double 1.100000e+00, double* %28, align 8, !tbaa !88
  %29 = getelementptr inbounds %"class.Minisat::Solver"* %this, i64 0, i32 18
  store i32 100, i32* %29, align 4, !tbaa !89
  %30 = getelementptr inbounds %"class.Minisat::Solver"* %this, i64 0, i32 19
  store double 1.500000e+00, double* %30, align 8, !tbaa !90
  %31 = getelementptr inbounds %"class.Minisat::Solver"* %this, i64 0, i32 20
  %32 = getelementptr inbounds %"class.Minisat::Solver"* %this, i64 0, i32 31
  %33 = bitcast i64* %31 to i8*
  call void @llvm.memset.p0i8.i64(i8* %33, i8 0, i64 88, i32 8, i1 false)
  store i8 1, i8* %32, align 1, !tbaa !91
  %34 = getelementptr inbounds %"class.Minisat::Solver"* %this, i64 0, i32 32
  %35 = getelementptr inbounds %"class.Minisat::Solver"* %this, i64 0, i32 34
  %36 = bitcast %"class.Minisat::vec.1"* %34 to i8*
  call void @llvm.memset.p0i8.i64(i8* %36, i8 0, i64 32, i32 8, i1 false)
  store double 1.000000e+00, double* %35, align 8, !tbaa !92
  %37 = getelementptr inbounds %"class.Minisat::Solver"* %this, i64 0, i32 35
  %38 = bitcast %"class.Minisat::vec.2"* %37 to i8*
  tail call void @llvm.memset.p0i8.i64(i8* %38, i8 0, i64 16, i32 8, i1 false) #2
  %39 = getelementptr inbounds %"class.Minisat::Solver"* %this, i64 0, i32 36
  store double 1.000000e+00, double* %39, align 8, !tbaa !93
  %40 = getelementptr inbounds %"class.Minisat::Solver"* %this, i64 0, i32 37
  %41 = getelementptr inbounds %"class.Minisat::Solver"* %this, i64 0, i32 52
  %42 = bitcast %"class.Minisat::OccLists"* %40 to i8*
  tail call void @llvm.memset.p0i8.i64(i8* %42, i8 0, i64 48, i32 8, i1 false)
  %43 = getelementptr inbounds %"class.Minisat::Solver"* %this, i64 0, i32 37, i32 3, i32 0
  store %"class.Minisat::ClauseAllocator"* %41, %"class.Minisat::ClauseAllocator"** %43, align 8, !tbaa !59
  %44 = getelementptr inbounds %"class.Minisat::Solver"* %this, i64 0, i32 38
  %45 = getelementptr inbounds %"class.Minisat::Solver"* %this, i64 0, i32 45
  %46 = bitcast %"class.Minisat::vec"* %44 to i8*
  call void @llvm.memset.p0i8.i64(i8* %46, i8 0, i64 100, i32 8, i1 false)
  store i32 -1, i32* %45, align 4, !tbaa !94
  %47 = getelementptr inbounds %"class.Minisat::Solver"* %this, i64 0, i32 46
  %48 = getelementptr inbounds %"class.Minisat::Solver"* %this, i64 0, i32 48, i32 0, i32 0
  %49 = bitcast i64* %47 to i8*
  call void @llvm.memset.p0i8.i64(i8* %49, i8 0, i64 24, i32 8, i1 false)
  store %"class.Minisat::vec.2"* %37, %"class.Minisat::vec.2"** %48, align 8
  %50 = getelementptr inbounds %"class.Minisat::Solver"* %this, i64 0, i32 48, i32 1
  %51 = getelementptr inbounds %"class.Minisat::Solver"* %this, i64 0, i32 50
  %52 = bitcast %"class.Minisat::vec.6"* %50 to i8*
  call void @llvm.memset.p0i8.i64(i8* %52, i8 0, i64 40, i32 8, i1 false)
  store i8 1, i8* %51, align 1, !tbaa !95
  %53 = bitcast %"class.Minisat::ClauseAllocator"* %41 to %"class.Minisat::RegionAllocator"*
  %54 = getelementptr inbounds %"class.Minisat::ClauseAllocator"* %41, i64 0, i32 0, i64 0
  tail call void @llvm.memset.p0i8.i64(i8* %54, i8 0, i64 20, i32 8, i1 false)
  invoke void @_ZN7Minisat15RegionAllocatorIjE8capacityEj(%"class.Minisat::RegionAllocator"* %53, i32 1048576)
          to label %55 unwind label %62

; <label>:55                                      ; preds = %0
  %56 = getelementptr inbounds %"class.Minisat::Solver"* %this, i64 0, i32 52, i32 1
  store i8 0, i8* %56, align 1, !tbaa !96
  %57 = getelementptr inbounds %"class.Minisat::Solver"* %this, i64 0, i32 53
  %58 = getelementptr inbounds %"class.Minisat::Solver"* %this, i64 0, i32 60
  %59 = bitcast %"class.Minisat::vec.5"* %57 to i8*
  call void @llvm.memset.p0i8.i64(i8* %59, i8 0, i64 64, i32 8, i1 false)
  %60 = getelementptr inbounds %"class.Minisat::Solver"* %this, i64 0, i32 62
  %61 = bitcast i64* %58 to i8*
  call void @llvm.memset.p0i8.i64(i8* %61, i8 -1, i64 16, i32 8, i1 false)
  store i8 0, i8* %60, align 1, !tbaa !68
  ret void

; <label>:62                                      ; preds = %0
  %63 = landingpad { i8*, i32 } personality i8* bitcast (i32 (...)* @__gxx_personality_v0 to i8*)
          cleanup
  %64 = getelementptr inbounds %"class.Minisat::Solver"* %this, i64 0, i32 48, i32 2, i32 0
  %65 = load i32** %64, align 8, !tbaa !97
  %66 = icmp eq i32* %65, null
  br i1 %66, label %_ZN7Minisat3vecIiED1Ev.exit.i.i, label %.preheader.i.i.i.i.i39

.preheader.i.i.i.i.i39:                           ; preds = %62
  %67 = getelementptr inbounds %"class.Minisat::Solver"* %this, i64 0, i32 48, i32 2, i32 1
  store i32 0, i32* %67, align 4, !tbaa !98
  %68 = bitcast i32* %65 to i8*
  tail call void @free(i8* %68) #2
  store i32* null, i32** %64, align 8, !tbaa !97
  %69 = getelementptr inbounds %"class.Minisat::Solver"* %this, i64 0, i32 48, i32 2, i32 2
  store i32 0, i32* %69, align 4, !tbaa !99
  br label %_ZN7Minisat3vecIiED1Ev.exit.i.i

_ZN7Minisat3vecIiED1Ev.exit.i.i:                  ; preds = %.preheader.i.i.i.i.i39, %62
  %70 = getelementptr inbounds %"class.Minisat::Solver"* %this, i64 0, i32 48, i32 1, i32 0
  %71 = load i32** %70, align 8, !tbaa !97
  %72 = icmp eq i32* %71, null
  br i1 %72, label %_ZN7Minisat4HeapINS_6Solver10VarOrderLtEED1Ev.exit, label %.preheader.i.i.i1.i.i

.preheader.i.i.i1.i.i:                            ; preds = %_ZN7Minisat3vecIiED1Ev.exit.i.i
  %73 = getelementptr inbounds %"class.Minisat::Solver"* %this, i64 0, i32 48, i32 1, i32 1
  store i32 0, i32* %73, align 4, !tbaa !98
  %74 = bitcast i32* %71 to i8*
  tail call void @free(i8* %74) #2
  store i32* null, i32** %70, align 8, !tbaa !97
  %75 = getelementptr inbounds %"class.Minisat::Solver"* %this, i64 0, i32 48, i32 1, i32 2
  store i32 0, i32* %75, align 4, !tbaa !99
  br label %_ZN7Minisat4HeapINS_6Solver10VarOrderLtEED1Ev.exit

_ZN7Minisat4HeapINS_6Solver10VarOrderLtEED1Ev.exit: ; preds = %.preheader.i.i.i1.i.i, %_ZN7Minisat3vecIiED1Ev.exit.i.i
  %76 = getelementptr inbounds %"class.Minisat::Solver"* %this, i64 0, i32 47, i32 0
  %77 = load %"struct.Minisat::Lit"** %76, align 8, !tbaa !60
  %78 = icmp eq %"struct.Minisat::Lit"* %77, null
  br i1 %78, label %_ZN7Minisat3vecINS_3LitEED1Ev.exit38, label %.preheader.i.i.i37

.preheader.i.i.i37:                               ; preds = %_ZN7Minisat4HeapINS_6Solver10VarOrderLtEED1Ev.exit
  %79 = getelementptr inbounds %"class.Minisat::Solver"* %this, i64 0, i32 47, i32 1
  store i32 0, i32* %79, align 4, !tbaa !61
  %80 = bitcast %"struct.Minisat::Lit"* %77 to i8*
  tail call void @free(i8* %80) #2
  store %"struct.Minisat::Lit"* null, %"struct.Minisat::Lit"** %76, align 8, !tbaa !60
  %81 = getelementptr inbounds %"class.Minisat::Solver"* %this, i64 0, i32 47, i32 2
  store i32 0, i32* %81, align 4, !tbaa !62
  br label %_ZN7Minisat3vecINS_3LitEED1Ev.exit38

_ZN7Minisat3vecINS_3LitEED1Ev.exit38:             ; preds = %.preheader.i.i.i37, %_ZN7Minisat4HeapINS_6Solver10VarOrderLtEED1Ev.exit
  %82 = getelementptr inbounds %"class.Minisat::Solver"* %this, i64 0, i32 43, i32 0
  %83 = load %"struct.Minisat::Solver::VarData"** %82, align 8, !tbaa !100
  %84 = icmp eq %"struct.Minisat::Solver::VarData"* %83, null
  br i1 %84, label %_ZN7Minisat3vecINS_6Solver7VarDataEED1Ev.exit, label %.preheader.i.i.i36

.preheader.i.i.i36:                               ; preds = %_ZN7Minisat3vecINS_3LitEED1Ev.exit38
  %85 = getelementptr inbounds %"class.Minisat::Solver"* %this, i64 0, i32 43, i32 1
  store i32 0, i32* %85, align 4, !tbaa !63
  %86 = bitcast %"struct.Minisat::Solver::VarData"* %83 to i8*
  tail call void @free(i8* %86) #2
  store %"struct.Minisat::Solver::VarData"* null, %"struct.Minisat::Solver::VarData"** %82, align 8, !tbaa !100
  %87 = getelementptr inbounds %"class.Minisat::Solver"* %this, i64 0, i32 43, i32 2
  store i32 0, i32* %87, align 4, !tbaa !101
  br label %_ZN7Minisat3vecINS_6Solver7VarDataEED1Ev.exit

_ZN7Minisat3vecINS_6Solver7VarDataEED1Ev.exit:    ; preds = %.preheader.i.i.i36, %_ZN7Minisat3vecINS_3LitEED1Ev.exit38
  %88 = getelementptr inbounds %"class.Minisat::Solver"* %this, i64 0, i32 42, i32 0
  %89 = load i32** %88, align 8, !tbaa !97
  %90 = icmp eq i32* %89, null
  br i1 %90, label %_ZN7Minisat3vecIiED1Ev.exit, label %.preheader.i.i.i35

.preheader.i.i.i35:                               ; preds = %_ZN7Minisat3vecINS_6Solver7VarDataEED1Ev.exit
  %91 = getelementptr inbounds %"class.Minisat::Solver"* %this, i64 0, i32 42, i32 1
  store i32 0, i32* %91, align 4, !tbaa !98
  %92 = bitcast i32* %89 to i8*
  tail call void @free(i8* %92) #2
  store i32* null, i32** %88, align 8, !tbaa !97
  %93 = getelementptr inbounds %"class.Minisat::Solver"* %this, i64 0, i32 42, i32 2
  store i32 0, i32* %93, align 4, !tbaa !99
  br label %_ZN7Minisat3vecIiED1Ev.exit

_ZN7Minisat3vecIiED1Ev.exit:                      ; preds = %.preheader.i.i.i35, %_ZN7Minisat3vecINS_6Solver7VarDataEED1Ev.exit
  %94 = getelementptr inbounds %"class.Minisat::Solver"* %this, i64 0, i32 41, i32 0
  %95 = load %"struct.Minisat::Lit"** %94, align 8, !tbaa !60
  %96 = icmp eq %"struct.Minisat::Lit"* %95, null
  br i1 %96, label %_ZN7Minisat3vecINS_3LitEED1Ev.exit34, label %.preheader.i.i.i33

.preheader.i.i.i33:                               ; preds = %_ZN7Minisat3vecIiED1Ev.exit
  %97 = getelementptr inbounds %"class.Minisat::Solver"* %this, i64 0, i32 41, i32 1
  store i32 0, i32* %97, align 4, !tbaa !61
  %98 = bitcast %"struct.Minisat::Lit"* %95 to i8*
  tail call void @free(i8* %98) #2
  store %"struct.Minisat::Lit"* null, %"struct.Minisat::Lit"** %94, align 8, !tbaa !60
  %99 = getelementptr inbounds %"class.Minisat::Solver"* %this, i64 0, i32 41, i32 2
  store i32 0, i32* %99, align 4, !tbaa !62
  br label %_ZN7Minisat3vecINS_3LitEED1Ev.exit34

_ZN7Minisat3vecINS_3LitEED1Ev.exit34:             ; preds = %.preheader.i.i.i33, %_ZN7Minisat3vecIiED1Ev.exit
  %100 = getelementptr inbounds %"class.Minisat::Solver"* %this, i64 0, i32 40, i32 0
  %101 = load i8** %100, align 8, !tbaa !102
  %102 = icmp eq i8* %101, null
  br i1 %102, label %_ZN7Minisat3vecIcED1Ev.exit32, label %.preheader.i.i.i31

.preheader.i.i.i31:                               ; preds = %_ZN7Minisat3vecINS_3LitEED1Ev.exit34
  %103 = getelementptr inbounds %"class.Minisat::Solver"* %this, i64 0, i32 40, i32 1
  store i32 0, i32* %103, align 4, !tbaa !103
  tail call void @free(i8* %101) #2
  store i8* null, i8** %100, align 8, !tbaa !102
  %104 = getelementptr inbounds %"class.Minisat::Solver"* %this, i64 0, i32 40, i32 2
  store i32 0, i32* %104, align 4, !tbaa !104
  br label %_ZN7Minisat3vecIcED1Ev.exit32

_ZN7Minisat3vecIcED1Ev.exit32:                    ; preds = %.preheader.i.i.i31, %_ZN7Minisat3vecINS_3LitEED1Ev.exit34
  %105 = getelementptr inbounds %"class.Minisat::Solver"* %this, i64 0, i32 39, i32 0
  %106 = load i8** %105, align 8, !tbaa !102
  %107 = icmp eq i8* %106, null
  br i1 %107, label %_ZN7Minisat3vecIcED1Ev.exit, label %.preheader.i.i.i30

.preheader.i.i.i30:                               ; preds = %_ZN7Minisat3vecIcED1Ev.exit32
  %108 = getelementptr inbounds %"class.Minisat::Solver"* %this, i64 0, i32 39, i32 1
  store i32 0, i32* %108, align 4, !tbaa !103
  tail call void @free(i8* %106) #2
  store i8* null, i8** %105, align 8, !tbaa !102
  %109 = getelementptr inbounds %"class.Minisat::Solver"* %this, i64 0, i32 39, i32 2
  store i32 0, i32* %109, align 4, !tbaa !104
  br label %_ZN7Minisat3vecIcED1Ev.exit

_ZN7Minisat3vecIcED1Ev.exit:                      ; preds = %.preheader.i.i.i30, %_ZN7Minisat3vecIcED1Ev.exit32
  %110 = getelementptr inbounds %"class.Minisat::vec"* %44, i64 0, i32 0
  %111 = load %"class.Minisat::lbool"** %110, align 8, !tbaa !65
  %112 = icmp eq %"class.Minisat::lbool"* %111, null
  br i1 %112, label %_ZN7Minisat3vecINS_5lboolEED1Ev.exit29, label %.preheader.i.i.i28

.preheader.i.i.i28:                               ; preds = %_ZN7Minisat3vecIcED1Ev.exit
  %113 = getelementptr inbounds %"class.Minisat::Solver"* %this, i64 0, i32 38, i32 1
  store i32 0, i32* %113, align 4, !tbaa !105
  %114 = getelementptr inbounds %"class.Minisat::lbool"* %111, i64 0, i32 0
  tail call void @free(i8* %114) #2
  store %"class.Minisat::lbool"* null, %"class.Minisat::lbool"** %110, align 8, !tbaa !65
  %115 = getelementptr inbounds %"class.Minisat::Solver"* %this, i64 0, i32 38, i32 2
  store i32 0, i32* %115, align 4, !tbaa !106
  br label %_ZN7Minisat3vecINS_5lboolEED1Ev.exit29

_ZN7Minisat3vecINS_5lboolEED1Ev.exit29:           ; preds = %.preheader.i.i.i28, %_ZN7Minisat3vecIcED1Ev.exit
  %116 = getelementptr inbounds %"class.Minisat::Solver"* %this, i64 0, i32 37, i32 2, i32 0
  %117 = load %"struct.Minisat::Lit"** %116, align 8, !tbaa !60
  %118 = icmp eq %"struct.Minisat::Lit"* %117, null
  br i1 %118, label %_ZN7Minisat3vecINS_3LitEED1Ev.exit.i.i, label %.preheader.i.i.i.i.i

.preheader.i.i.i.i.i:                             ; preds = %_ZN7Minisat3vecINS_5lboolEED1Ev.exit29
  %119 = getelementptr inbounds %"class.Minisat::Solver"* %this, i64 0, i32 37, i32 2, i32 1
  store i32 0, i32* %119, align 4, !tbaa !61
  %120 = bitcast %"struct.Minisat::Lit"* %117 to i8*
  tail call void @free(i8* %120) #2
  store %"struct.Minisat::Lit"* null, %"struct.Minisat::Lit"** %116, align 8, !tbaa !60
  %121 = getelementptr inbounds %"class.Minisat::Solver"* %this, i64 0, i32 37, i32 2, i32 2
  store i32 0, i32* %121, align 4, !tbaa !62
  br label %_ZN7Minisat3vecINS_3LitEED1Ev.exit.i.i

_ZN7Minisat3vecINS_3LitEED1Ev.exit.i.i:           ; preds = %.preheader.i.i.i.i.i, %_ZN7Minisat3vecINS_5lboolEED1Ev.exit29
  %122 = getelementptr inbounds %"class.Minisat::Solver"* %this, i64 0, i32 37, i32 1, i32 0
  %123 = load i8** %122, align 8, !tbaa !102
  %124 = icmp eq i8* %123, null
  br i1 %124, label %_ZN7Minisat3vecIcED1Ev.exit.i.i, label %.preheader.i.i.i2.i.i

.preheader.i.i.i2.i.i:                            ; preds = %_ZN7Minisat3vecINS_3LitEED1Ev.exit.i.i
  %125 = getelementptr inbounds %"class.Minisat::Solver"* %this, i64 0, i32 37, i32 1, i32 1
  store i32 0, i32* %125, align 4, !tbaa !103
  tail call void @free(i8* %123) #2
  store i8* null, i8** %122, align 8, !tbaa !102
  %126 = getelementptr inbounds %"class.Minisat::Solver"* %this, i64 0, i32 37, i32 1, i32 2
  store i32 0, i32* %126, align 4, !tbaa !104
  br label %_ZN7Minisat3vecIcED1Ev.exit.i.i

_ZN7Minisat3vecIcED1Ev.exit.i.i:                  ; preds = %.preheader.i.i.i2.i.i, %_ZN7Minisat3vecINS_3LitEED1Ev.exit.i.i
  %127 = getelementptr inbounds %"class.Minisat::OccLists"* %40, i64 0, i32 0, i32 0
  %128 = load %"class.Minisat::vec.4"** %127, align 8, !tbaa !107
  %129 = icmp eq %"class.Minisat::vec.4"* %128, null
  br i1 %129, label %_ZN7Minisat8OccListsINS_3LitENS_3vecINS_6Solver7WatcherEEENS3_14WatcherDeletedEED1Ev.exit, label %.preheader.i.i.i3.i.i

.preheader.i.i.i3.i.i:                            ; preds = %_ZN7Minisat3vecIcED1Ev.exit.i.i
  %130 = getelementptr inbounds %"class.Minisat::Solver"* %this, i64 0, i32 37, i32 0, i32 1
  %131 = load i32* %130, align 4, !tbaa !108
  %132 = icmp sgt i32 %131, 0
  br i1 %132, label %.lr.ph.i.i.i.i.i, label %._crit_edge.i.i.i.i.i

.lr.ph.i.i.i.i.i:                                 ; preds = %_ZN7Minisat3vecINS_6Solver7WatcherEED1Ev.exit.i.i.i.i.i, %.preheader.i.i.i3.i.i
  %133 = phi i32 [ %141, %_ZN7Minisat3vecINS_6Solver7WatcherEED1Ev.exit.i.i.i.i.i ], [ %131, %.preheader.i.i.i3.i.i ]
  %134 = phi %"class.Minisat::vec.4"* [ %.pre.i.i.i.i.i, %_ZN7Minisat3vecINS_6Solver7WatcherEED1Ev.exit.i.i.i.i.i ], [ %128, %.preheader.i.i.i3.i.i ]
  %indvars.iv.i.i.i.i.i = phi i64 [ %indvars.iv.next.i.i.i.i.i, %_ZN7Minisat3vecINS_6Solver7WatcherEED1Ev.exit.i.i.i.i.i ], [ 0, %.preheader.i.i.i3.i.i ]
  %135 = getelementptr inbounds %"class.Minisat::vec.4"* %134, i64 %indvars.iv.i.i.i.i.i, i32 0
  %136 = load %"struct.Minisat::Solver::Watcher"** %135, align 8, !tbaa !109
  %137 = icmp eq %"struct.Minisat::Solver::Watcher"* %136, null
  br i1 %137, label %_ZN7Minisat3vecINS_6Solver7WatcherEED1Ev.exit.i.i.i.i.i, label %.preheader.i.i.i.i.i.i.i.i

.preheader.i.i.i.i.i.i.i.i:                       ; preds = %.lr.ph.i.i.i.i.i
  %138 = getelementptr inbounds %"class.Minisat::vec.4"* %134, i64 %indvars.iv.i.i.i.i.i, i32 1
  store i32 0, i32* %138, align 4, !tbaa !111
  %139 = bitcast %"struct.Minisat::Solver::Watcher"* %136 to i8*
  tail call void @free(i8* %139) #2
  store %"struct.Minisat::Solver::Watcher"* null, %"struct.Minisat::Solver::Watcher"** %135, align 8, !tbaa !109
  %140 = getelementptr inbounds %"class.Minisat::vec.4"* %134, i64 %indvars.iv.i.i.i.i.i, i32 2
  store i32 0, i32* %140, align 4, !tbaa !112
  %.pre2.i.i.i.i.i = load i32* %130, align 4, !tbaa !108
  %.pre.i.i.pre.i.i.i = load %"class.Minisat::vec.4"** %127, align 8, !tbaa !107
  br label %_ZN7Minisat3vecINS_6Solver7WatcherEED1Ev.exit.i.i.i.i.i

_ZN7Minisat3vecINS_6Solver7WatcherEED1Ev.exit.i.i.i.i.i: ; preds = %.preheader.i.i.i.i.i.i.i.i, %.lr.ph.i.i.i.i.i
  %.pre.i.i.i.i.i = phi %"class.Minisat::vec.4"* [ %134, %.lr.ph.i.i.i.i.i ], [ %.pre.i.i.pre.i.i.i, %.preheader.i.i.i.i.i.i.i.i ]
  %141 = phi i32 [ %133, %.lr.ph.i.i.i.i.i ], [ %.pre2.i.i.i.i.i, %.preheader.i.i.i.i.i.i.i.i ]
  %indvars.iv.next.i.i.i.i.i = add nuw nsw i64 %indvars.iv.i.i.i.i.i, 1
  %142 = trunc i64 %indvars.iv.next.i.i.i.i.i to i32
  %143 = icmp slt i32 %142, %141
  br i1 %143, label %.lr.ph.i.i.i.i.i, label %._crit_edge.i.i.i.i.i

._crit_edge.i.i.i.i.i:                            ; preds = %_ZN7Minisat3vecINS_6Solver7WatcherEED1Ev.exit.i.i.i.i.i, %.preheader.i.i.i3.i.i
  %144 = phi %"class.Minisat::vec.4"* [ %128, %.preheader.i.i.i3.i.i ], [ %.pre.i.i.i.i.i, %_ZN7Minisat3vecINS_6Solver7WatcherEED1Ev.exit.i.i.i.i.i ]
  store i32 0, i32* %130, align 4, !tbaa !108
  %145 = bitcast %"class.Minisat::vec.4"* %144 to i8*
  tail call void @free(i8* %145) #2
  store %"class.Minisat::vec.4"* null, %"class.Minisat::vec.4"** %127, align 8, !tbaa !107
  %146 = getelementptr inbounds %"class.Minisat::Solver"* %this, i64 0, i32 37, i32 0, i32 2
  store i32 0, i32* %146, align 4, !tbaa !113
  br label %_ZN7Minisat8OccListsINS_3LitENS_3vecINS_6Solver7WatcherEEENS3_14WatcherDeletedEED1Ev.exit

_ZN7Minisat8OccListsINS_3LitENS_3vecINS_6Solver7WatcherEEENS3_14WatcherDeletedEED1Ev.exit: ; preds = %._crit_edge.i.i.i.i.i, %_ZN7Minisat3vecIcED1Ev.exit.i.i
  %147 = getelementptr inbounds %"class.Minisat::vec.2"* %37, i64 0, i32 0
  %148 = load double** %147, align 8, !tbaa !114
  %149 = icmp eq double* %148, null
  br i1 %149, label %_ZN7Minisat3vecIdED1Ev.exit, label %.preheader.i.i.i27

.preheader.i.i.i27:                               ; preds = %_ZN7Minisat8OccListsINS_3LitENS_3vecINS_6Solver7WatcherEEENS3_14WatcherDeletedEED1Ev.exit
  %150 = getelementptr inbounds %"class.Minisat::Solver"* %this, i64 0, i32 35, i32 1
  store i32 0, i32* %150, align 4, !tbaa !115
  %151 = bitcast double* %148 to i8*
  tail call void @free(i8* %151) #2
  store double* null, double** %147, align 8, !tbaa !114
  %152 = getelementptr inbounds %"class.Minisat::Solver"* %this, i64 0, i32 35, i32 2
  store i32 0, i32* %152, align 4, !tbaa !116
  br label %_ZN7Minisat3vecIdED1Ev.exit

_ZN7Minisat3vecIdED1Ev.exit:                      ; preds = %.preheader.i.i.i27, %_ZN7Minisat8OccListsINS_3LitENS_3vecINS_6Solver7WatcherEEENS3_14WatcherDeletedEED1Ev.exit
  %153 = getelementptr inbounds %"class.Minisat::Solver"* %this, i64 0, i32 33, i32 0
  %154 = load i32** %153, align 8, !tbaa !117
  %155 = icmp eq i32* %154, null
  br i1 %155, label %_ZN7Minisat3vecIjED1Ev.exit26, label %.preheader.i.i.i25

.preheader.i.i.i25:                               ; preds = %_ZN7Minisat3vecIdED1Ev.exit
  %156 = getelementptr inbounds %"class.Minisat::Solver"* %this, i64 0, i32 33, i32 1
  store i32 0, i32* %156, align 4, !tbaa !64
  %157 = bitcast i32* %154 to i8*
  tail call void @free(i8* %157) #2
  store i32* null, i32** %153, align 8, !tbaa !117
  %158 = getelementptr inbounds %"class.Minisat::Solver"* %this, i64 0, i32 33, i32 2
  store i32 0, i32* %158, align 4, !tbaa !118
  br label %_ZN7Minisat3vecIjED1Ev.exit26

_ZN7Minisat3vecIjED1Ev.exit26:                    ; preds = %.preheader.i.i.i25, %_ZN7Minisat3vecIdED1Ev.exit
  %159 = getelementptr inbounds %"class.Minisat::vec.1"* %34, i64 0, i32 0
  %160 = load i32** %159, align 8, !tbaa !117
  %161 = icmp eq i32* %160, null
  br i1 %161, label %_ZN7Minisat3vecIjED1Ev.exit, label %.preheader.i.i.i24

.preheader.i.i.i24:                               ; preds = %_ZN7Minisat3vecIjED1Ev.exit26
  %162 = getelementptr inbounds %"class.Minisat::Solver"* %this, i64 0, i32 32, i32 1
  store i32 0, i32* %162, align 4, !tbaa !64
  %163 = bitcast i32* %160 to i8*
  tail call void @free(i8* %163) #2
  store i32* null, i32** %159, align 8, !tbaa !117
  %164 = getelementptr inbounds %"class.Minisat::Solver"* %this, i64 0, i32 32, i32 2
  store i32 0, i32* %164, align 4, !tbaa !118
  br label %_ZN7Minisat3vecIjED1Ev.exit

_ZN7Minisat3vecIjED1Ev.exit:                      ; preds = %.preheader.i.i.i24, %_ZN7Minisat3vecIjED1Ev.exit26
  %165 = getelementptr inbounds %"class.Minisat::Solver"* %this, i64 0, i32 2, i32 0
  %166 = load %"struct.Minisat::Lit"** %165, align 8, !tbaa !60
  %167 = icmp eq %"struct.Minisat::Lit"* %166, null
  br i1 %167, label %_ZN7Minisat3vecINS_3LitEED1Ev.exit, label %.preheader.i.i.i23

.preheader.i.i.i23:                               ; preds = %_ZN7Minisat3vecIjED1Ev.exit
  %168 = getelementptr inbounds %"class.Minisat::Solver"* %this, i64 0, i32 2, i32 1
  store i32 0, i32* %168, align 4, !tbaa !61
  %169 = bitcast %"struct.Minisat::Lit"* %166 to i8*
  tail call void @free(i8* %169) #2
  store %"struct.Minisat::Lit"* null, %"struct.Minisat::Lit"** %165, align 8, !tbaa !60
  %170 = getelementptr inbounds %"class.Minisat::Solver"* %this, i64 0, i32 2, i32 2
  store i32 0, i32* %170, align 4, !tbaa !62
  br label %_ZN7Minisat3vecINS_3LitEED1Ev.exit

_ZN7Minisat3vecINS_3LitEED1Ev.exit:               ; preds = %.preheader.i.i.i23, %_ZN7Minisat3vecIjED1Ev.exit
  %171 = getelementptr inbounds %"class.Minisat::vec"* %2, i64 0, i32 0
  %172 = load %"class.Minisat::lbool"** %171, align 8, !tbaa !65
  %173 = icmp eq %"class.Minisat::lbool"* %172, null
  br i1 %173, label %_ZN7Minisat3vecINS_5lboolEED1Ev.exit, label %.preheader.i.i.i

.preheader.i.i.i:                                 ; preds = %_ZN7Minisat3vecINS_3LitEED1Ev.exit
  %174 = getelementptr inbounds %"class.Minisat::Solver"* %this, i64 0, i32 1, i32 1
  store i32 0, i32* %174, align 4, !tbaa !105
  %175 = getelementptr inbounds %"class.Minisat::lbool"* %172, i64 0, i32 0
  tail call void @free(i8* %175) #2
  store %"class.Minisat::lbool"* null, %"class.Minisat::lbool"** %171, align 8, !tbaa !65
  %176 = getelementptr inbounds %"class.Minisat::Solver"* %this, i64 0, i32 1, i32 2
  store i32 0, i32* %176, align 4, !tbaa !106
  br label %_ZN7Minisat3vecINS_5lboolEED1Ev.exit

_ZN7Minisat3vecINS_5lboolEED1Ev.exit:             ; preds = %.preheader.i.i.i, %_ZN7Minisat3vecINS_3LitEED1Ev.exit
  resume { i8*, i32 } %63
}

; Function Attrs: ssp uwtable
define void @_ZN7Minisat6SolverC1Ev(%"class.Minisat::Solver"* %this) #0 align 2 {
  tail call void @_ZN7Minisat6SolverC2Ev(%"class.Minisat::Solver"* %this)
  ret void
}

; Function Attrs: ssp uwtable
define void @_ZN7Minisat6SolverD2Ev(%"class.Minisat::Solver"* %this) unnamed_addr #0 align 2 {
  %1 = getelementptr inbounds %"class.Minisat::Solver"* %this, i64 0, i32 0
  store i32 (...)** bitcast (i8** getelementptr inbounds ([5 x i8*]* @_ZTVN7Minisat6SolverE, i64 0, i64 2) to i32 (...)**), i32 (...)*** %1, align 8, !tbaa !37
  %2 = getelementptr inbounds %"class.Minisat::Solver"* %this, i64 0, i32 56, i32 0
  %3 = load %"struct.Minisat::Lit"** %2, align 8, !tbaa !60
  %4 = icmp eq %"struct.Minisat::Lit"* %3, null
  br i1 %4, label %_ZN7Minisat3vecINS_3LitEED1Ev.exit, label %.preheader.i.i.i

.preheader.i.i.i:                                 ; preds = %0
  %5 = getelementptr inbounds %"class.Minisat::Solver"* %this, i64 0, i32 56, i32 1
  store i32 0, i32* %5, align 4, !tbaa !61
  %6 = bitcast %"struct.Minisat::Lit"* %3 to i8*
  tail call void @free(i8* %6) #2
  store %"struct.Minisat::Lit"* null, %"struct.Minisat::Lit"** %2, align 8, !tbaa !60
  %7 = getelementptr inbounds %"class.Minisat::Solver"* %this, i64 0, i32 56, i32 2
  store i32 0, i32* %7, align 4, !tbaa !62
  br label %_ZN7Minisat3vecINS_3LitEED1Ev.exit

_ZN7Minisat3vecINS_3LitEED1Ev.exit:               ; preds = %.preheader.i.i.i, %0
  %8 = getelementptr inbounds %"class.Minisat::Solver"* %this, i64 0, i32 55, i32 0
  %9 = load %"struct.Minisat::Lit"** %8, align 8, !tbaa !60
  %10 = icmp eq %"struct.Minisat::Lit"* %9, null
  br i1 %10, label %_ZN7Minisat3vecINS_3LitEED1Ev.exit24, label %.preheader.i.i.i23

.preheader.i.i.i23:                               ; preds = %_ZN7Minisat3vecINS_3LitEED1Ev.exit
  %11 = getelementptr inbounds %"class.Minisat::Solver"* %this, i64 0, i32 55, i32 1
  store i32 0, i32* %11, align 4, !tbaa !61
  %12 = bitcast %"struct.Minisat::Lit"* %9 to i8*
  tail call void @free(i8* %12) #2
  store %"struct.Minisat::Lit"* null, %"struct.Minisat::Lit"** %8, align 8, !tbaa !60
  %13 = getelementptr inbounds %"class.Minisat::Solver"* %this, i64 0, i32 55, i32 2
  store i32 0, i32* %13, align 4, !tbaa !62
  br label %_ZN7Minisat3vecINS_3LitEED1Ev.exit24

_ZN7Minisat3vecINS_3LitEED1Ev.exit24:             ; preds = %.preheader.i.i.i23, %_ZN7Minisat3vecINS_3LitEED1Ev.exit
  %14 = getelementptr inbounds %"class.Minisat::Solver"* %this, i64 0, i32 54, i32 0
  %15 = load %"struct.Minisat::Lit"** %14, align 8, !tbaa !60
  %16 = icmp eq %"struct.Minisat::Lit"* %15, null
  br i1 %16, label %_ZN7Minisat3vecINS_3LitEED1Ev.exit26, label %.preheader.i.i.i25

.preheader.i.i.i25:                               ; preds = %_ZN7Minisat3vecINS_3LitEED1Ev.exit24
  %17 = getelementptr inbounds %"class.Minisat::Solver"* %this, i64 0, i32 54, i32 1
  store i32 0, i32* %17, align 4, !tbaa !61
  %18 = bitcast %"struct.Minisat::Lit"* %15 to i8*
  tail call void @free(i8* %18) #2
  store %"struct.Minisat::Lit"* null, %"struct.Minisat::Lit"** %14, align 8, !tbaa !60
  %19 = getelementptr inbounds %"class.Minisat::Solver"* %this, i64 0, i32 54, i32 2
  store i32 0, i32* %19, align 4, !tbaa !62
  br label %_ZN7Minisat3vecINS_3LitEED1Ev.exit26

_ZN7Minisat3vecINS_3LitEED1Ev.exit26:             ; preds = %.preheader.i.i.i25, %_ZN7Minisat3vecINS_3LitEED1Ev.exit24
  %20 = getelementptr inbounds %"class.Minisat::Solver"* %this, i64 0, i32 53, i32 0
  %21 = load i8** %20, align 8, !tbaa !102
  %22 = icmp eq i8* %21, null
  br i1 %22, label %_ZN7Minisat3vecIcED1Ev.exit, label %.preheader.i.i.i27

.preheader.i.i.i27:                               ; preds = %_ZN7Minisat3vecINS_3LitEED1Ev.exit26
  %23 = getelementptr inbounds %"class.Minisat::Solver"* %this, i64 0, i32 53, i32 1
  store i32 0, i32* %23, align 4, !tbaa !103
  tail call void @free(i8* %21) #2
  store i8* null, i8** %20, align 8, !tbaa !102
  %24 = getelementptr inbounds %"class.Minisat::Solver"* %this, i64 0, i32 53, i32 2
  store i32 0, i32* %24, align 4, !tbaa !104
  br label %_ZN7Minisat3vecIcED1Ev.exit

_ZN7Minisat3vecIcED1Ev.exit:                      ; preds = %.preheader.i.i.i27, %_ZN7Minisat3vecINS_3LitEED1Ev.exit26
  %25 = getelementptr inbounds %"class.Minisat::Solver"* %this, i64 0, i32 52
  %26 = bitcast %"class.Minisat::ClauseAllocator"* %25 to i32**
  %27 = load i32** %26, align 8, !tbaa !119
  %28 = icmp eq i32* %27, null
  br i1 %28, label %_ZN7Minisat15ClauseAllocatorD1Ev.exit, label %29

; <label>:29                                      ; preds = %_ZN7Minisat3vecIcED1Ev.exit
  %30 = bitcast i32* %27 to i8*
  tail call void @free(i8* %30) #2
  br label %_ZN7Minisat15ClauseAllocatorD1Ev.exit

_ZN7Minisat15ClauseAllocatorD1Ev.exit:            ; preds = %29, %_ZN7Minisat3vecIcED1Ev.exit
  %31 = getelementptr inbounds %"class.Minisat::Solver"* %this, i64 0, i32 48, i32 2, i32 0
  %32 = load i32** %31, align 8, !tbaa !97
  %33 = icmp eq i32* %32, null
  br i1 %33, label %_ZN7Minisat3vecIiED1Ev.exit.i.i, label %.preheader.i.i.i.i.i

.preheader.i.i.i.i.i:                             ; preds = %_ZN7Minisat15ClauseAllocatorD1Ev.exit
  %34 = getelementptr inbounds %"class.Minisat::Solver"* %this, i64 0, i32 48, i32 2, i32 1
  store i32 0, i32* %34, align 4, !tbaa !98
  %35 = bitcast i32* %32 to i8*
  tail call void @free(i8* %35) #2
  store i32* null, i32** %31, align 8, !tbaa !97
  %36 = getelementptr inbounds %"class.Minisat::Solver"* %this, i64 0, i32 48, i32 2, i32 2
  store i32 0, i32* %36, align 4, !tbaa !99
  br label %_ZN7Minisat3vecIiED1Ev.exit.i.i

_ZN7Minisat3vecIiED1Ev.exit.i.i:                  ; preds = %.preheader.i.i.i.i.i, %_ZN7Minisat15ClauseAllocatorD1Ev.exit
  %37 = getelementptr inbounds %"class.Minisat::Solver"* %this, i64 0, i32 48, i32 1, i32 0
  %38 = load i32** %37, align 8, !tbaa !97
  %39 = icmp eq i32* %38, null
  br i1 %39, label %_ZN7Minisat4HeapINS_6Solver10VarOrderLtEED1Ev.exit, label %.preheader.i.i.i1.i.i

.preheader.i.i.i1.i.i:                            ; preds = %_ZN7Minisat3vecIiED1Ev.exit.i.i
  %40 = getelementptr inbounds %"class.Minisat::Solver"* %this, i64 0, i32 48, i32 1, i32 1
  store i32 0, i32* %40, align 4, !tbaa !98
  %41 = bitcast i32* %38 to i8*
  tail call void @free(i8* %41) #2
  store i32* null, i32** %37, align 8, !tbaa !97
  %42 = getelementptr inbounds %"class.Minisat::Solver"* %this, i64 0, i32 48, i32 1, i32 2
  store i32 0, i32* %42, align 4, !tbaa !99
  br label %_ZN7Minisat4HeapINS_6Solver10VarOrderLtEED1Ev.exit

_ZN7Minisat4HeapINS_6Solver10VarOrderLtEED1Ev.exit: ; preds = %.preheader.i.i.i1.i.i, %_ZN7Minisat3vecIiED1Ev.exit.i.i
  %43 = getelementptr inbounds %"class.Minisat::Solver"* %this, i64 0, i32 47, i32 0
  %44 = load %"struct.Minisat::Lit"** %43, align 8, !tbaa !60
  %45 = icmp eq %"struct.Minisat::Lit"* %44, null
  br i1 %45, label %_ZN7Minisat3vecINS_3LitEED1Ev.exit29, label %.preheader.i.i.i28

.preheader.i.i.i28:                               ; preds = %_ZN7Minisat4HeapINS_6Solver10VarOrderLtEED1Ev.exit
  %46 = getelementptr inbounds %"class.Minisat::Solver"* %this, i64 0, i32 47, i32 1
  store i32 0, i32* %46, align 4, !tbaa !61
  %47 = bitcast %"struct.Minisat::Lit"* %44 to i8*
  tail call void @free(i8* %47) #2
  store %"struct.Minisat::Lit"* null, %"struct.Minisat::Lit"** %43, align 8, !tbaa !60
  %48 = getelementptr inbounds %"class.Minisat::Solver"* %this, i64 0, i32 47, i32 2
  store i32 0, i32* %48, align 4, !tbaa !62
  br label %_ZN7Minisat3vecINS_3LitEED1Ev.exit29

_ZN7Minisat3vecINS_3LitEED1Ev.exit29:             ; preds = %.preheader.i.i.i28, %_ZN7Minisat4HeapINS_6Solver10VarOrderLtEED1Ev.exit
  %49 = getelementptr inbounds %"class.Minisat::Solver"* %this, i64 0, i32 43, i32 0
  %50 = load %"struct.Minisat::Solver::VarData"** %49, align 8, !tbaa !100
  %51 = icmp eq %"struct.Minisat::Solver::VarData"* %50, null
  br i1 %51, label %_ZN7Minisat3vecINS_6Solver7VarDataEED1Ev.exit, label %.preheader.i.i.i30

.preheader.i.i.i30:                               ; preds = %_ZN7Minisat3vecINS_3LitEED1Ev.exit29
  %52 = getelementptr inbounds %"class.Minisat::Solver"* %this, i64 0, i32 43, i32 1
  store i32 0, i32* %52, align 4, !tbaa !63
  %53 = bitcast %"struct.Minisat::Solver::VarData"* %50 to i8*
  tail call void @free(i8* %53) #2
  store %"struct.Minisat::Solver::VarData"* null, %"struct.Minisat::Solver::VarData"** %49, align 8, !tbaa !100
  %54 = getelementptr inbounds %"class.Minisat::Solver"* %this, i64 0, i32 43, i32 2
  store i32 0, i32* %54, align 4, !tbaa !101
  br label %_ZN7Minisat3vecINS_6Solver7VarDataEED1Ev.exit

_ZN7Minisat3vecINS_6Solver7VarDataEED1Ev.exit:    ; preds = %.preheader.i.i.i30, %_ZN7Minisat3vecINS_3LitEED1Ev.exit29
  %55 = getelementptr inbounds %"class.Minisat::Solver"* %this, i64 0, i32 42, i32 0
  %56 = load i32** %55, align 8, !tbaa !97
  %57 = icmp eq i32* %56, null
  br i1 %57, label %_ZN7Minisat3vecIiED1Ev.exit, label %.preheader.i.i.i31

.preheader.i.i.i31:                               ; preds = %_ZN7Minisat3vecINS_6Solver7VarDataEED1Ev.exit
  %58 = getelementptr inbounds %"class.Minisat::Solver"* %this, i64 0, i32 42, i32 1
  store i32 0, i32* %58, align 4, !tbaa !98
  %59 = bitcast i32* %56 to i8*
  tail call void @free(i8* %59) #2
  store i32* null, i32** %55, align 8, !tbaa !97
  %60 = getelementptr inbounds %"class.Minisat::Solver"* %this, i64 0, i32 42, i32 2
  store i32 0, i32* %60, align 4, !tbaa !99
  br label %_ZN7Minisat3vecIiED1Ev.exit

_ZN7Minisat3vecIiED1Ev.exit:                      ; preds = %.preheader.i.i.i31, %_ZN7Minisat3vecINS_6Solver7VarDataEED1Ev.exit
  %61 = getelementptr inbounds %"class.Minisat::Solver"* %this, i64 0, i32 41, i32 0
  %62 = load %"struct.Minisat::Lit"** %61, align 8, !tbaa !60
  %63 = icmp eq %"struct.Minisat::Lit"* %62, null
  br i1 %63, label %_ZN7Minisat3vecINS_3LitEED1Ev.exit33, label %.preheader.i.i.i32

.preheader.i.i.i32:                               ; preds = %_ZN7Minisat3vecIiED1Ev.exit
  %64 = getelementptr inbounds %"class.Minisat::Solver"* %this, i64 0, i32 41, i32 1
  store i32 0, i32* %64, align 4, !tbaa !61
  %65 = bitcast %"struct.Minisat::Lit"* %62 to i8*
  tail call void @free(i8* %65) #2
  store %"struct.Minisat::Lit"* null, %"struct.Minisat::Lit"** %61, align 8, !tbaa !60
  %66 = getelementptr inbounds %"class.Minisat::Solver"* %this, i64 0, i32 41, i32 2
  store i32 0, i32* %66, align 4, !tbaa !62
  br label %_ZN7Minisat3vecINS_3LitEED1Ev.exit33

_ZN7Minisat3vecINS_3LitEED1Ev.exit33:             ; preds = %.preheader.i.i.i32, %_ZN7Minisat3vecIiED1Ev.exit
  %67 = getelementptr inbounds %"class.Minisat::Solver"* %this, i64 0, i32 40, i32 0
  %68 = load i8** %67, align 8, !tbaa !102
  %69 = icmp eq i8* %68, null
  br i1 %69, label %_ZN7Minisat3vecIcED1Ev.exit35, label %.preheader.i.i.i34

.preheader.i.i.i34:                               ; preds = %_ZN7Minisat3vecINS_3LitEED1Ev.exit33
  %70 = getelementptr inbounds %"class.Minisat::Solver"* %this, i64 0, i32 40, i32 1
  store i32 0, i32* %70, align 4, !tbaa !103
  tail call void @free(i8* %68) #2
  store i8* null, i8** %67, align 8, !tbaa !102
  %71 = getelementptr inbounds %"class.Minisat::Solver"* %this, i64 0, i32 40, i32 2
  store i32 0, i32* %71, align 4, !tbaa !104
  br label %_ZN7Minisat3vecIcED1Ev.exit35

_ZN7Minisat3vecIcED1Ev.exit35:                    ; preds = %.preheader.i.i.i34, %_ZN7Minisat3vecINS_3LitEED1Ev.exit33
  %72 = getelementptr inbounds %"class.Minisat::Solver"* %this, i64 0, i32 39, i32 0
  %73 = load i8** %72, align 8, !tbaa !102
  %74 = icmp eq i8* %73, null
  br i1 %74, label %_ZN7Minisat3vecIcED1Ev.exit37, label %.preheader.i.i.i36

.preheader.i.i.i36:                               ; preds = %_ZN7Minisat3vecIcED1Ev.exit35
  %75 = getelementptr inbounds %"class.Minisat::Solver"* %this, i64 0, i32 39, i32 1
  store i32 0, i32* %75, align 4, !tbaa !103
  tail call void @free(i8* %73) #2
  store i8* null, i8** %72, align 8, !tbaa !102
  %76 = getelementptr inbounds %"class.Minisat::Solver"* %this, i64 0, i32 39, i32 2
  store i32 0, i32* %76, align 4, !tbaa !104
  br label %_ZN7Minisat3vecIcED1Ev.exit37

_ZN7Minisat3vecIcED1Ev.exit37:                    ; preds = %.preheader.i.i.i36, %_ZN7Minisat3vecIcED1Ev.exit35
  %77 = getelementptr inbounds %"class.Minisat::Solver"* %this, i64 0, i32 38, i32 0
  %78 = load %"class.Minisat::lbool"** %77, align 8, !tbaa !65
  %79 = icmp eq %"class.Minisat::lbool"* %78, null
  br i1 %79, label %_ZN7Minisat3vecINS_5lboolEED1Ev.exit, label %.preheader.i.i.i38

.preheader.i.i.i38:                               ; preds = %_ZN7Minisat3vecIcED1Ev.exit37
  %80 = getelementptr inbounds %"class.Minisat::Solver"* %this, i64 0, i32 38, i32 1
  store i32 0, i32* %80, align 4, !tbaa !105
  %81 = getelementptr inbounds %"class.Minisat::lbool"* %78, i64 0, i32 0
  tail call void @free(i8* %81) #2
  store %"class.Minisat::lbool"* null, %"class.Minisat::lbool"** %77, align 8, !tbaa !65
  %82 = getelementptr inbounds %"class.Minisat::Solver"* %this, i64 0, i32 38, i32 2
  store i32 0, i32* %82, align 4, !tbaa !106
  br label %_ZN7Minisat3vecINS_5lboolEED1Ev.exit

_ZN7Minisat3vecINS_5lboolEED1Ev.exit:             ; preds = %.preheader.i.i.i38, %_ZN7Minisat3vecIcED1Ev.exit37
  %83 = getelementptr inbounds %"class.Minisat::Solver"* %this, i64 0, i32 37, i32 2, i32 0
  %84 = load %"struct.Minisat::Lit"** %83, align 8, !tbaa !60
  %85 = icmp eq %"struct.Minisat::Lit"* %84, null
  br i1 %85, label %_ZN7Minisat3vecINS_3LitEED1Ev.exit.i.i, label %.preheader.i.i.i.i.i39

.preheader.i.i.i.i.i39:                           ; preds = %_ZN7Minisat3vecINS_5lboolEED1Ev.exit
  %86 = getelementptr inbounds %"class.Minisat::Solver"* %this, i64 0, i32 37, i32 2, i32 1
  store i32 0, i32* %86, align 4, !tbaa !61
  %87 = bitcast %"struct.Minisat::Lit"* %84 to i8*
  tail call void @free(i8* %87) #2
  store %"struct.Minisat::Lit"* null, %"struct.Minisat::Lit"** %83, align 8, !tbaa !60
  %88 = getelementptr inbounds %"class.Minisat::Solver"* %this, i64 0, i32 37, i32 2, i32 2
  store i32 0, i32* %88, align 4, !tbaa !62
  br label %_ZN7Minisat3vecINS_3LitEED1Ev.exit.i.i

_ZN7Minisat3vecINS_3LitEED1Ev.exit.i.i:           ; preds = %.preheader.i.i.i.i.i39, %_ZN7Minisat3vecINS_5lboolEED1Ev.exit
  %89 = getelementptr inbounds %"class.Minisat::Solver"* %this, i64 0, i32 37, i32 1, i32 0
  %90 = load i8** %89, align 8, !tbaa !102
  %91 = icmp eq i8* %90, null
  br i1 %91, label %_ZN7Minisat3vecIcED1Ev.exit.i.i, label %.preheader.i.i.i2.i.i

.preheader.i.i.i2.i.i:                            ; preds = %_ZN7Minisat3vecINS_3LitEED1Ev.exit.i.i
  %92 = getelementptr inbounds %"class.Minisat::Solver"* %this, i64 0, i32 37, i32 1, i32 1
  store i32 0, i32* %92, align 4, !tbaa !103
  tail call void @free(i8* %90) #2
  store i8* null, i8** %89, align 8, !tbaa !102
  %93 = getelementptr inbounds %"class.Minisat::Solver"* %this, i64 0, i32 37, i32 1, i32 2
  store i32 0, i32* %93, align 4, !tbaa !104
  br label %_ZN7Minisat3vecIcED1Ev.exit.i.i

_ZN7Minisat3vecIcED1Ev.exit.i.i:                  ; preds = %.preheader.i.i.i2.i.i, %_ZN7Minisat3vecINS_3LitEED1Ev.exit.i.i
  %94 = getelementptr inbounds %"class.Minisat::Solver"* %this, i64 0, i32 37, i32 0, i32 0
  %95 = load %"class.Minisat::vec.4"** %94, align 8, !tbaa !107
  %96 = icmp eq %"class.Minisat::vec.4"* %95, null
  br i1 %96, label %_ZN7Minisat8OccListsINS_3LitENS_3vecINS_6Solver7WatcherEEENS3_14WatcherDeletedEED1Ev.exit, label %.preheader.i.i.i3.i.i

.preheader.i.i.i3.i.i:                            ; preds = %_ZN7Minisat3vecIcED1Ev.exit.i.i
  %97 = getelementptr inbounds %"class.Minisat::Solver"* %this, i64 0, i32 37, i32 0, i32 1
  %98 = load i32* %97, align 4, !tbaa !108
  %99 = icmp sgt i32 %98, 0
  br i1 %99, label %.lr.ph.i.i.i.i.i, label %._crit_edge.i.i.i.i.i

.lr.ph.i.i.i.i.i:                                 ; preds = %_ZN7Minisat3vecINS_6Solver7WatcherEED1Ev.exit.i.i.i.i.i, %.preheader.i.i.i3.i.i
  %100 = phi i32 [ %108, %_ZN7Minisat3vecINS_6Solver7WatcherEED1Ev.exit.i.i.i.i.i ], [ %98, %.preheader.i.i.i3.i.i ]
  %101 = phi %"class.Minisat::vec.4"* [ %.pre.i.i.i.i.i, %_ZN7Minisat3vecINS_6Solver7WatcherEED1Ev.exit.i.i.i.i.i ], [ %95, %.preheader.i.i.i3.i.i ]
  %indvars.iv.i.i.i.i.i = phi i64 [ %indvars.iv.next.i.i.i.i.i, %_ZN7Minisat3vecINS_6Solver7WatcherEED1Ev.exit.i.i.i.i.i ], [ 0, %.preheader.i.i.i3.i.i ]
  %102 = getelementptr inbounds %"class.Minisat::vec.4"* %101, i64 %indvars.iv.i.i.i.i.i, i32 0
  %103 = load %"struct.Minisat::Solver::Watcher"** %102, align 8, !tbaa !109
  %104 = icmp eq %"struct.Minisat::Solver::Watcher"* %103, null
  br i1 %104, label %_ZN7Minisat3vecINS_6Solver7WatcherEED1Ev.exit.i.i.i.i.i, label %.preheader.i.i.i.i.i.i.i.i

.preheader.i.i.i.i.i.i.i.i:                       ; preds = %.lr.ph.i.i.i.i.i
  %105 = getelementptr inbounds %"class.Minisat::vec.4"* %101, i64 %indvars.iv.i.i.i.i.i, i32 1
  store i32 0, i32* %105, align 4, !tbaa !111
  %106 = bitcast %"struct.Minisat::Solver::Watcher"* %103 to i8*
  tail call void @free(i8* %106) #2
  store %"struct.Minisat::Solver::Watcher"* null, %"struct.Minisat::Solver::Watcher"** %102, align 8, !tbaa !109
  %107 = getelementptr inbounds %"class.Minisat::vec.4"* %101, i64 %indvars.iv.i.i.i.i.i, i32 2
  store i32 0, i32* %107, align 4, !tbaa !112
  %.pre2.i.i.i.i.i = load i32* %97, align 4, !tbaa !108
  %.pre.i.i.pre.i.i.i = load %"class.Minisat::vec.4"** %94, align 8, !tbaa !107
  br label %_ZN7Minisat3vecINS_6Solver7WatcherEED1Ev.exit.i.i.i.i.i

_ZN7Minisat3vecINS_6Solver7WatcherEED1Ev.exit.i.i.i.i.i: ; preds = %.preheader.i.i.i.i.i.i.i.i, %.lr.ph.i.i.i.i.i
  %.pre.i.i.i.i.i = phi %"class.Minisat::vec.4"* [ %101, %.lr.ph.i.i.i.i.i ], [ %.pre.i.i.pre.i.i.i, %.preheader.i.i.i.i.i.i.i.i ]
  %108 = phi i32 [ %100, %.lr.ph.i.i.i.i.i ], [ %.pre2.i.i.i.i.i, %.preheader.i.i.i.i.i.i.i.i ]
  %indvars.iv.next.i.i.i.i.i = add nuw nsw i64 %indvars.iv.i.i.i.i.i, 1
  %109 = trunc i64 %indvars.iv.next.i.i.i.i.i to i32
  %110 = icmp slt i32 %109, %108
  br i1 %110, label %.lr.ph.i.i.i.i.i, label %._crit_edge.i.i.i.i.i

._crit_edge.i.i.i.i.i:                            ; preds = %_ZN7Minisat3vecINS_6Solver7WatcherEED1Ev.exit.i.i.i.i.i, %.preheader.i.i.i3.i.i
  %111 = phi %"class.Minisat::vec.4"* [ %95, %.preheader.i.i.i3.i.i ], [ %.pre.i.i.i.i.i, %_ZN7Minisat3vecINS_6Solver7WatcherEED1Ev.exit.i.i.i.i.i ]
  store i32 0, i32* %97, align 4, !tbaa !108
  %112 = bitcast %"class.Minisat::vec.4"* %111 to i8*
  tail call void @free(i8* %112) #2
  store %"class.Minisat::vec.4"* null, %"class.Minisat::vec.4"** %94, align 8, !tbaa !107
  %113 = getelementptr inbounds %"class.Minisat::Solver"* %this, i64 0, i32 37, i32 0, i32 2
  store i32 0, i32* %113, align 4, !tbaa !113
  br label %_ZN7Minisat8OccListsINS_3LitENS_3vecINS_6Solver7WatcherEEENS3_14WatcherDeletedEED1Ev.exit

_ZN7Minisat8OccListsINS_3LitENS_3vecINS_6Solver7WatcherEEENS3_14WatcherDeletedEED1Ev.exit: ; preds = %._crit_edge.i.i.i.i.i, %_ZN7Minisat3vecIcED1Ev.exit.i.i
  %114 = getelementptr inbounds %"class.Minisat::Solver"* %this, i64 0, i32 35, i32 0
  %115 = load double** %114, align 8, !tbaa !114
  %116 = icmp eq double* %115, null
  br i1 %116, label %_ZN7Minisat3vecIdED1Ev.exit, label %.preheader.i.i.i40

.preheader.i.i.i40:                               ; preds = %_ZN7Minisat8OccListsINS_3LitENS_3vecINS_6Solver7WatcherEEENS3_14WatcherDeletedEED1Ev.exit
  %117 = getelementptr inbounds %"class.Minisat::Solver"* %this, i64 0, i32 35, i32 1
  store i32 0, i32* %117, align 4, !tbaa !115
  %118 = bitcast double* %115 to i8*
  tail call void @free(i8* %118) #2
  store double* null, double** %114, align 8, !tbaa !114
  %119 = getelementptr inbounds %"class.Minisat::Solver"* %this, i64 0, i32 35, i32 2
  store i32 0, i32* %119, align 4, !tbaa !116
  br label %_ZN7Minisat3vecIdED1Ev.exit

_ZN7Minisat3vecIdED1Ev.exit:                      ; preds = %.preheader.i.i.i40, %_ZN7Minisat8OccListsINS_3LitENS_3vecINS_6Solver7WatcherEEENS3_14WatcherDeletedEED1Ev.exit
  %120 = getelementptr inbounds %"class.Minisat::Solver"* %this, i64 0, i32 33, i32 0
  %121 = load i32** %120, align 8, !tbaa !117
  %122 = icmp eq i32* %121, null
  br i1 %122, label %_ZN7Minisat3vecIjED1Ev.exit, label %.preheader.i.i.i41

.preheader.i.i.i41:                               ; preds = %_ZN7Minisat3vecIdED1Ev.exit
  %123 = getelementptr inbounds %"class.Minisat::Solver"* %this, i64 0, i32 33, i32 1
  store i32 0, i32* %123, align 4, !tbaa !64
  %124 = bitcast i32* %121 to i8*
  tail call void @free(i8* %124) #2
  store i32* null, i32** %120, align 8, !tbaa !117
  %125 = getelementptr inbounds %"class.Minisat::Solver"* %this, i64 0, i32 33, i32 2
  store i32 0, i32* %125, align 4, !tbaa !118
  br label %_ZN7Minisat3vecIjED1Ev.exit

_ZN7Minisat3vecIjED1Ev.exit:                      ; preds = %.preheader.i.i.i41, %_ZN7Minisat3vecIdED1Ev.exit
  %126 = getelementptr inbounds %"class.Minisat::Solver"* %this, i64 0, i32 32, i32 0
  %127 = load i32** %126, align 8, !tbaa !117
  %128 = icmp eq i32* %127, null
  br i1 %128, label %_ZN7Minisat3vecIjED1Ev.exit43, label %.preheader.i.i.i42

.preheader.i.i.i42:                               ; preds = %_ZN7Minisat3vecIjED1Ev.exit
  %129 = getelementptr inbounds %"class.Minisat::Solver"* %this, i64 0, i32 32, i32 1
  store i32 0, i32* %129, align 4, !tbaa !64
  %130 = bitcast i32* %127 to i8*
  tail call void @free(i8* %130) #2
  store i32* null, i32** %126, align 8, !tbaa !117
  %131 = getelementptr inbounds %"class.Minisat::Solver"* %this, i64 0, i32 32, i32 2
  store i32 0, i32* %131, align 4, !tbaa !118
  br label %_ZN7Minisat3vecIjED1Ev.exit43

_ZN7Minisat3vecIjED1Ev.exit43:                    ; preds = %.preheader.i.i.i42, %_ZN7Minisat3vecIjED1Ev.exit
  %132 = getelementptr inbounds %"class.Minisat::Solver"* %this, i64 0, i32 2, i32 0
  %133 = load %"struct.Minisat::Lit"** %132, align 8, !tbaa !60
  %134 = icmp eq %"struct.Minisat::Lit"* %133, null
  br i1 %134, label %_ZN7Minisat3vecINS_3LitEED1Ev.exit45, label %.preheader.i.i.i44

.preheader.i.i.i44:                               ; preds = %_ZN7Minisat3vecIjED1Ev.exit43
  %135 = getelementptr inbounds %"class.Minisat::Solver"* %this, i64 0, i32 2, i32 1
  store i32 0, i32* %135, align 4, !tbaa !61
  %136 = bitcast %"struct.Minisat::Lit"* %133 to i8*
  tail call void @free(i8* %136) #2
  store %"struct.Minisat::Lit"* null, %"struct.Minisat::Lit"** %132, align 8, !tbaa !60
  %137 = getelementptr inbounds %"class.Minisat::Solver"* %this, i64 0, i32 2, i32 2
  store i32 0, i32* %137, align 4, !tbaa !62
  br label %_ZN7Minisat3vecINS_3LitEED1Ev.exit45

_ZN7Minisat3vecINS_3LitEED1Ev.exit45:             ; preds = %.preheader.i.i.i44, %_ZN7Minisat3vecIjED1Ev.exit43
  %138 = getelementptr inbounds %"class.Minisat::Solver"* %this, i64 0, i32 1, i32 0
  %139 = load %"class.Minisat::lbool"** %138, align 8, !tbaa !65
  %140 = icmp eq %"class.Minisat::lbool"* %139, null
  br i1 %140, label %_ZN7Minisat3vecINS_5lboolEED1Ev.exit47, label %.preheader.i.i.i46

.preheader.i.i.i46:                               ; preds = %_ZN7Minisat3vecINS_3LitEED1Ev.exit45
  %141 = getelementptr inbounds %"class.Minisat::Solver"* %this, i64 0, i32 1, i32 1
  store i32 0, i32* %141, align 4, !tbaa !105
  %142 = getelementptr inbounds %"class.Minisat::lbool"* %139, i64 0, i32 0
  tail call void @free(i8* %142) #2
  store %"class.Minisat::lbool"* null, %"class.Minisat::lbool"** %138, align 8, !tbaa !65
  %143 = getelementptr inbounds %"class.Minisat::Solver"* %this, i64 0, i32 1, i32 2
  store i32 0, i32* %143, align 4, !tbaa !106
  br label %_ZN7Minisat3vecINS_5lboolEED1Ev.exit47

_ZN7Minisat3vecINS_5lboolEED1Ev.exit47:           ; preds = %.preheader.i.i.i46, %_ZN7Minisat3vecINS_3LitEED1Ev.exit45
  ret void
}

; Function Attrs: ssp uwtable
define void @_ZN7Minisat6SolverD1Ev(%"class.Minisat::Solver"* %this) #0 align 2 {
  tail call void @_ZN7Minisat6SolverD2Ev(%"class.Minisat::Solver"* %this)
  ret void
}

; Function Attrs: ssp uwtable
define void @_ZN7Minisat6SolverD0Ev(%"class.Minisat::Solver"* %this) unnamed_addr #0 align 2 {
  invoke void @_ZN7Minisat6SolverD2Ev(%"class.Minisat::Solver"* %this)
          to label %_ZN7Minisat6SolverD1Ev.exit unwind label %2

_ZN7Minisat6SolverD1Ev.exit:                      ; preds = %0
  %1 = bitcast %"class.Minisat::Solver"* %this to i8*
  tail call void @_ZdlPv(i8* %1) #18
  ret void

; <label>:2                                       ; preds = %0
  %3 = landingpad { i8*, i32 } personality i8* bitcast (i32 (...)* @__gxx_personality_v0 to i8*)
          cleanup
  %4 = bitcast %"class.Minisat::Solver"* %this to i8*
  tail call void @_ZdlPv(i8* %4) #18
  resume { i8*, i32 } %3
}

; Function Attrs: ssp uwtable
define i32 @_ZN7Minisat6Solver6newVarEbb(%"class.Minisat::Solver"* nocapture %this, i1 zeroext %sign, i1 zeroext %dvar) #0 align 2 {
  %1 = getelementptr inbounds %"class.Minisat::Solver"* %this, i64 0, i32 43, i32 1
  %2 = load i32* %1, align 4, !tbaa !63
  %3 = getelementptr inbounds %"class.Minisat::Solver"* %this, i64 0, i32 37
  %4 = shl nsw i32 %2, 1
  %5 = or i32 %4, 1
  %6 = getelementptr inbounds %"class.Minisat::Solver"* %this, i64 0, i32 37, i32 0, i32 1
  %7 = load i32* %6, align 4, !tbaa !108
  %8 = icmp slt i32 %7, %5
  br i1 %8, label %9, label %_ZN7Minisat3vecINS0_INS_6Solver7WatcherEEEE6growToEi.exit.i

; <label>:9                                       ; preds = %0
  %10 = getelementptr inbounds %"class.Minisat::OccLists"* %3, i64 0, i32 0
  tail call void @_ZN7Minisat3vecINS0_INS_6Solver7WatcherEEEE8capacityEi(%"class.Minisat::vec.3"* %10, i32 %5)
  %11 = load i32* %6, align 4, !tbaa !108
  %12 = icmp slt i32 %11, %5
  br i1 %12, label %.lr.ph.i2.i, label %._crit_edge.i5.i

.lr.ph.i2.i:                                      ; preds = %9
  %13 = getelementptr inbounds %"class.Minisat::OccLists"* %3, i64 0, i32 0, i32 0
  %14 = sext i32 %11 to i64
  br label %15

; <label>:15                                      ; preds = %21, %.lr.ph.i2.i
  %indvars.iv.i3.i = phi i64 [ %14, %.lr.ph.i2.i ], [ %indvars.iv.next.i4.i, %21 ]
  %16 = load %"class.Minisat::vec.4"** %13, align 8, !tbaa !107
  %17 = getelementptr inbounds %"class.Minisat::vec.4"* %16, i64 %indvars.iv.i3.i
  %18 = icmp eq %"class.Minisat::vec.4"* %17, null
  br i1 %18, label %21, label %19

; <label>:19                                      ; preds = %15
  %20 = bitcast %"class.Minisat::vec.4"* %17 to i8*
  tail call void @llvm.memset.p0i8.i64(i8* %20, i8 0, i64 16, i32 8, i1 false) #2
  br label %21

; <label>:21                                      ; preds = %19, %15
  %indvars.iv.next.i4.i = add nsw i64 %indvars.iv.i3.i, 1
  %22 = trunc i64 %indvars.iv.next.i4.i to i32
  %23 = icmp slt i32 %22, %5
  br i1 %23, label %15, label %._crit_edge.i5.i

._crit_edge.i5.i:                                 ; preds = %21, %9
  store i32 %5, i32* %6, align 4, !tbaa !108
  br label %_ZN7Minisat3vecINS0_INS_6Solver7WatcherEEEE6growToEi.exit.i

_ZN7Minisat3vecINS0_INS_6Solver7WatcherEEEE6growToEi.exit.i: ; preds = %._crit_edge.i5.i, %0
  %24 = phi i32 [ %5, %._crit_edge.i5.i ], [ %7, %0 ]
  %25 = getelementptr inbounds %"class.Minisat::Solver"* %this, i64 0, i32 37, i32 1
  %26 = getelementptr inbounds %"class.Minisat::Solver"* %this, i64 0, i32 37, i32 1, i32 1
  %27 = load i32* %26, align 4, !tbaa !103
  %28 = icmp slt i32 %27, %5
  br i1 %28, label %29, label %_ZN7Minisat8OccListsINS_3LitENS_3vecINS_6Solver7WatcherEEENS3_14WatcherDeletedEE4initERKS1_.exit

; <label>:29                                      ; preds = %_ZN7Minisat3vecINS0_INS_6Solver7WatcherEEEE6growToEi.exit.i
  tail call void @_ZN7Minisat3vecIcE8capacityEi(%"class.Minisat::vec.5"* %25, i32 %5)
  %30 = load i32* %26, align 4, !tbaa !103
  %31 = icmp slt i32 %30, %5
  br i1 %31, label %.lr.ph.i.i, label %._crit_edge.i.i

.lr.ph.i.i:                                       ; preds = %29
  %32 = getelementptr inbounds %"class.Minisat::vec.5"* %25, i64 0, i32 0
  %33 = sext i32 %30 to i64
  br label %34

; <label>:34                                      ; preds = %34, %.lr.ph.i.i
  %indvars.iv.i.i = phi i64 [ %33, %.lr.ph.i.i ], [ %indvars.iv.next.i.i, %34 ]
  %35 = load i8** %32, align 8, !tbaa !102
  %36 = getelementptr inbounds i8* %35, i64 %indvars.iv.i.i
  store i8 0, i8* %36, align 1, !tbaa !59
  %indvars.iv.next.i.i = add nsw i64 %indvars.iv.i.i, 1
  %37 = trunc i64 %indvars.iv.next.i.i to i32
  %38 = icmp slt i32 %37, %5
  br i1 %38, label %34, label %._crit_edge.i.i

._crit_edge.i.i:                                  ; preds = %34, %29
  store i32 %5, i32* %26, align 4, !tbaa !103
  %.pre = load i32* %6, align 4, !tbaa !108
  br label %_ZN7Minisat8OccListsINS_3LitENS_3vecINS_6Solver7WatcherEEENS3_14WatcherDeletedEE4initERKS1_.exit

_ZN7Minisat8OccListsINS_3LitENS_3vecINS_6Solver7WatcherEEENS3_14WatcherDeletedEE4initERKS1_.exit: ; preds = %._crit_edge.i.i, %_ZN7Minisat3vecINS0_INS_6Solver7WatcherEEEE6growToEi.exit.i
  %39 = phi i32 [ %27, %_ZN7Minisat3vecINS0_INS_6Solver7WatcherEEEE6growToEi.exit.i ], [ %5, %._crit_edge.i.i ]
  %40 = phi i32 [ %24, %_ZN7Minisat3vecINS0_INS_6Solver7WatcherEEEE6growToEi.exit.i ], [ %.pre, %._crit_edge.i.i ]
  %41 = add nsw i32 %5, 1
  %42 = icmp slt i32 %40, %41
  br i1 %42, label %43, label %_ZN7Minisat3vecINS0_INS_6Solver7WatcherEEEE6growToEi.exit.i6

; <label>:43                                      ; preds = %_ZN7Minisat8OccListsINS_3LitENS_3vecINS_6Solver7WatcherEEENS3_14WatcherDeletedEE4initERKS1_.exit
  %44 = getelementptr inbounds %"class.Minisat::OccLists"* %3, i64 0, i32 0
  tail call void @_ZN7Minisat3vecINS0_INS_6Solver7WatcherEEEE8capacityEi(%"class.Minisat::vec.3"* %44, i32 %41)
  %45 = load i32* %6, align 4, !tbaa !108
  %46 = icmp slt i32 %45, %41
  br i1 %46, label %.lr.ph.i2.i1, label %._crit_edge.i5.i5

.lr.ph.i2.i1:                                     ; preds = %43
  %47 = getelementptr inbounds %"class.Minisat::OccLists"* %3, i64 0, i32 0, i32 0
  %48 = sext i32 %45 to i64
  br label %49

; <label>:49                                      ; preds = %55, %.lr.ph.i2.i1
  %indvars.iv.i3.i2 = phi i64 [ %48, %.lr.ph.i2.i1 ], [ %indvars.iv.next.i4.i3, %55 ]
  %50 = load %"class.Minisat::vec.4"** %47, align 8, !tbaa !107
  %51 = getelementptr inbounds %"class.Minisat::vec.4"* %50, i64 %indvars.iv.i3.i2
  %52 = icmp eq %"class.Minisat::vec.4"* %51, null
  br i1 %52, label %55, label %53

; <label>:53                                      ; preds = %49
  %54 = bitcast %"class.Minisat::vec.4"* %51 to i8*
  tail call void @llvm.memset.p0i8.i64(i8* %54, i8 0, i64 16, i32 8, i1 false) #2
  br label %55

; <label>:55                                      ; preds = %53, %49
  %indvars.iv.next.i4.i3 = add nsw i64 %indvars.iv.i3.i2, 1
  %56 = trunc i64 %indvars.iv.next.i4.i3 to i32
  %57 = icmp slt i32 %56, %41
  br i1 %57, label %49, label %._crit_edge.i5.i5

._crit_edge.i5.i5:                                ; preds = %55, %43
  store i32 %41, i32* %6, align 4, !tbaa !108
  %.pre21 = load i32* %26, align 4, !tbaa !103
  br label %_ZN7Minisat3vecINS0_INS_6Solver7WatcherEEEE6growToEi.exit.i6

_ZN7Minisat3vecINS0_INS_6Solver7WatcherEEEE6growToEi.exit.i6: ; preds = %._crit_edge.i5.i5, %_ZN7Minisat8OccListsINS_3LitENS_3vecINS_6Solver7WatcherEEENS3_14WatcherDeletedEE4initERKS1_.exit
  %58 = phi i32 [ %.pre21, %._crit_edge.i5.i5 ], [ %39, %_ZN7Minisat8OccListsINS_3LitENS_3vecINS_6Solver7WatcherEEENS3_14WatcherDeletedEE4initERKS1_.exit ]
  %59 = icmp slt i32 %58, %41
  br i1 %59, label %60, label %_ZN7Minisat8OccListsINS_3LitENS_3vecINS_6Solver7WatcherEEENS3_14WatcherDeletedEE4initERKS1_.exit11

; <label>:60                                      ; preds = %_ZN7Minisat3vecINS0_INS_6Solver7WatcherEEEE6growToEi.exit.i6
  tail call void @_ZN7Minisat3vecIcE8capacityEi(%"class.Minisat::vec.5"* %25, i32 %41)
  %61 = load i32* %26, align 4, !tbaa !103
  %62 = icmp slt i32 %61, %41
  br i1 %62, label %.lr.ph.i.i7, label %._crit_edge.i.i10

.lr.ph.i.i7:                                      ; preds = %60
  %63 = getelementptr inbounds %"class.Minisat::vec.5"* %25, i64 0, i32 0
  %64 = sext i32 %61 to i64
  br label %65

; <label>:65                                      ; preds = %65, %.lr.ph.i.i7
  %indvars.iv.i.i8 = phi i64 [ %64, %.lr.ph.i.i7 ], [ %indvars.iv.next.i.i9, %65 ]
  %66 = load i8** %63, align 8, !tbaa !102
  %67 = getelementptr inbounds i8* %66, i64 %indvars.iv.i.i8
  store i8 0, i8* %67, align 1, !tbaa !59
  %indvars.iv.next.i.i9 = add nsw i64 %indvars.iv.i.i8, 1
  %68 = trunc i64 %indvars.iv.next.i.i9 to i32
  %69 = icmp slt i32 %68, %41
  br i1 %69, label %65, label %._crit_edge.i.i10

._crit_edge.i.i10:                                ; preds = %65, %60
  store i32 %41, i32* %26, align 4, !tbaa !103
  br label %_ZN7Minisat8OccListsINS_3LitENS_3vecINS_6Solver7WatcherEEENS3_14WatcherDeletedEE4initERKS1_.exit11

_ZN7Minisat8OccListsINS_3LitENS_3vecINS_6Solver7WatcherEEENS3_14WatcherDeletedEE4initERKS1_.exit11: ; preds = %._crit_edge.i.i10, %_ZN7Minisat3vecINS0_INS_6Solver7WatcherEEEE6growToEi.exit.i6
  %70 = getelementptr inbounds %"class.Minisat::Solver"* %this, i64 0, i32 38
  %71 = getelementptr inbounds %"class.Minisat::Solver"* %this, i64 0, i32 38, i32 1
  %72 = load i32* %71, align 4, !tbaa !105
  %73 = getelementptr inbounds %"class.Minisat::Solver"* %this, i64 0, i32 38, i32 2
  %74 = load i32* %73, align 4, !tbaa !106
  %75 = icmp eq i32 %72, %74
  br i1 %75, label %76, label %_ZN7Minisat3vecINS_5lboolEE4pushERKS1_.exit

; <label>:76                                      ; preds = %_ZN7Minisat8OccListsINS_3LitENS_3vecINS_6Solver7WatcherEEENS3_14WatcherDeletedEE4initERKS1_.exit11
  %77 = add nsw i32 %72, 1
  tail call void @_ZN7Minisat3vecINS_5lboolEE8capacityEi(%"class.Minisat::vec"* %70, i32 %77)
  %.pre.i12 = load i32* %71, align 4, !tbaa !105
  br label %_ZN7Minisat3vecINS_5lboolEE4pushERKS1_.exit

_ZN7Minisat3vecINS_5lboolEE4pushERKS1_.exit:      ; preds = %76, %_ZN7Minisat8OccListsINS_3LitENS_3vecINS_6Solver7WatcherEEENS3_14WatcherDeletedEE4initERKS1_.exit11
  %78 = phi i32 [ %.pre.i12, %76 ], [ %72, %_ZN7Minisat8OccListsINS_3LitENS_3vecINS_6Solver7WatcherEEENS3_14WatcherDeletedEE4initERKS1_.exit11 ]
  %79 = add nsw i32 %78, 1
  store i32 %79, i32* %71, align 4, !tbaa !105
  %80 = sext i32 %78 to i64
  %81 = getelementptr inbounds %"class.Minisat::vec"* %70, i64 0, i32 0
  %82 = load %"class.Minisat::lbool"** %81, align 8, !tbaa !65
  %83 = getelementptr inbounds %"class.Minisat::lbool"* %82, i64 %80, i32 0
  store i8 2, i8* %83, align 1
  %84 = getelementptr inbounds %"class.Minisat::Solver"* %this, i64 0, i32 43
  %85 = load i32* %1, align 4, !tbaa !63
  %86 = getelementptr inbounds %"class.Minisat::Solver"* %this, i64 0, i32 43, i32 2
  %87 = load i32* %86, align 4, !tbaa !101
  %88 = icmp eq i32 %85, %87
  br i1 %88, label %89, label %_ZN7Minisat3vecINS_6Solver7VarDataEE4pushERKS2_.exit

; <label>:89                                      ; preds = %_ZN7Minisat3vecINS_5lboolEE4pushERKS1_.exit
  %90 = add nsw i32 %85, 1
  tail call void @_ZN7Minisat3vecINS_6Solver7VarDataEE8capacityEi(%"class.Minisat::vec.7"* %84, i32 %90)
  %.pre.i14 = load i32* %1, align 4, !tbaa !63
  br label %_ZN7Minisat3vecINS_6Solver7VarDataEE4pushERKS2_.exit

_ZN7Minisat3vecINS_6Solver7VarDataEE4pushERKS2_.exit: ; preds = %89, %_ZN7Minisat3vecINS_5lboolEE4pushERKS1_.exit
  %91 = phi i32 [ %.pre.i14, %89 ], [ %85, %_ZN7Minisat3vecINS_5lboolEE4pushERKS1_.exit ]
  %92 = add nsw i32 %91, 1
  store i32 %92, i32* %1, align 4, !tbaa !63
  %93 = sext i32 %91 to i64
  %94 = getelementptr inbounds %"class.Minisat::vec.7"* %84, i64 0, i32 0
  %95 = load %"struct.Minisat::Solver::VarData"** %94, align 8, !tbaa !100
  %96 = getelementptr inbounds %"struct.Minisat::Solver::VarData"* %95, i64 %93
  %97 = bitcast %"struct.Minisat::Solver::VarData"* %96 to i64*
  store i64 4294967295, i64* %97, align 4
  %98 = getelementptr inbounds %"class.Minisat::Solver"* %this, i64 0, i32 35
  %99 = getelementptr inbounds %"class.Minisat::Solver"* %this, i64 0, i32 12
  %100 = load i8* %99, align 1, !tbaa !83, !range !78
  %101 = icmp eq i8 %100, 0
  br i1 %101, label %113, label %102

; <label>:102                                     ; preds = %_ZN7Minisat3vecINS_6Solver7VarDataEE4pushERKS2_.exit
  %103 = getelementptr inbounds %"class.Minisat::Solver"* %this, i64 0, i32 7
  %104 = load double* %103, align 8, !tbaa !72
  %105 = fmul double %104, 1.389796e+06
  %106 = fdiv double %105, 0x41DFFFFFFFC00000
  %107 = fptosi double %106 to i32
  %108 = sitofp i32 %107 to double
  %109 = fmul double %108, 0x41DFFFFFFFC00000
  %110 = fsub double %105, %109
  store double %110, double* %103, align 8, !tbaa !72
  %111 = fdiv double %110, 0x41DFFFFFFFC00000
  %112 = fmul double %111, 1.000000e-05
  br label %113

; <label>:113                                     ; preds = %102, %_ZN7Minisat3vecINS_6Solver7VarDataEE4pushERKS2_.exit
  %114 = phi double [ %112, %102 ], [ 0.000000e+00, %_ZN7Minisat3vecINS_6Solver7VarDataEE4pushERKS2_.exit ]
  %115 = getelementptr inbounds %"class.Minisat::Solver"* %this, i64 0, i32 35, i32 1
  %116 = load i32* %115, align 4, !tbaa !115
  %117 = getelementptr inbounds %"class.Minisat::Solver"* %this, i64 0, i32 35, i32 2
  %118 = load i32* %117, align 4, !tbaa !116
  %119 = icmp eq i32 %116, %118
  br i1 %119, label %120, label %_ZN7Minisat3vecIdE4pushERKd.exit

; <label>:120                                     ; preds = %113
  %121 = add nsw i32 %116, 1
  tail call void @_ZN7Minisat3vecIdE8capacityEi(%"class.Minisat::vec.2"* %98, i32 %121)
  %.pre.i16 = load i32* %115, align 4, !tbaa !115
  br label %_ZN7Minisat3vecIdE4pushERKd.exit

_ZN7Minisat3vecIdE4pushERKd.exit:                 ; preds = %120, %113
  %122 = phi i32 [ %.pre.i16, %120 ], [ %116, %113 ]
  %123 = add nsw i32 %122, 1
  store i32 %123, i32* %115, align 4, !tbaa !115
  %124 = sext i32 %122 to i64
  %125 = getelementptr inbounds %"class.Minisat::vec.2"* %98, i64 0, i32 0
  %126 = load double** %125, align 8, !tbaa !114
  %127 = getelementptr inbounds double* %126, i64 %124
  store double %114, double* %127, align 8, !tbaa !72
  %128 = getelementptr inbounds %"class.Minisat::Solver"* %this, i64 0, i32 53
  %129 = getelementptr inbounds %"class.Minisat::Solver"* %this, i64 0, i32 53, i32 1
  %130 = load i32* %129, align 4, !tbaa !103
  %131 = getelementptr inbounds %"class.Minisat::Solver"* %this, i64 0, i32 53, i32 2
  %132 = load i32* %131, align 4, !tbaa !104
  %133 = icmp eq i32 %130, %132
  br i1 %133, label %134, label %_ZN7Minisat3vecIcE4pushERKc.exit18

; <label>:134                                     ; preds = %_ZN7Minisat3vecIdE4pushERKd.exit
  %135 = add nsw i32 %130, 1
  tail call void @_ZN7Minisat3vecIcE8capacityEi(%"class.Minisat::vec.5"* %128, i32 %135)
  %.pre.i17 = load i32* %129, align 4, !tbaa !103
  br label %_ZN7Minisat3vecIcE4pushERKc.exit18

_ZN7Minisat3vecIcE4pushERKc.exit18:               ; preds = %134, %_ZN7Minisat3vecIdE4pushERKd.exit
  %136 = phi i32 [ %.pre.i17, %134 ], [ %130, %_ZN7Minisat3vecIdE4pushERKd.exit ]
  %137 = add nsw i32 %136, 1
  store i32 %137, i32* %129, align 4, !tbaa !103
  %138 = sext i32 %136 to i64
  %139 = getelementptr inbounds %"class.Minisat::vec.5"* %128, i64 0, i32 0
  %140 = load i8** %139, align 8, !tbaa !102
  %141 = getelementptr inbounds i8* %140, i64 %138
  store i8 0, i8* %141, align 1, !tbaa !59
  %142 = getelementptr inbounds %"class.Minisat::Solver"* %this, i64 0, i32 39
  %143 = zext i1 %sign to i8
  %144 = getelementptr inbounds %"class.Minisat::Solver"* %this, i64 0, i32 39, i32 1
  %145 = load i32* %144, align 4, !tbaa !103
  %146 = getelementptr inbounds %"class.Minisat::Solver"* %this, i64 0, i32 39, i32 2
  %147 = load i32* %146, align 4, !tbaa !104
  %148 = icmp eq i32 %145, %147
  br i1 %148, label %149, label %_ZN7Minisat3vecIcE4pushERKc.exit

; <label>:149                                     ; preds = %_ZN7Minisat3vecIcE4pushERKc.exit18
  %150 = add nsw i32 %145, 1
  tail call void @_ZN7Minisat3vecIcE8capacityEi(%"class.Minisat::vec.5"* %142, i32 %150)
  %.pre.i15 = load i32* %144, align 4, !tbaa !103
  br label %_ZN7Minisat3vecIcE4pushERKc.exit

_ZN7Minisat3vecIcE4pushERKc.exit:                 ; preds = %149, %_ZN7Minisat3vecIcE4pushERKc.exit18
  %151 = phi i32 [ %.pre.i15, %149 ], [ %145, %_ZN7Minisat3vecIcE4pushERKc.exit18 ]
  %152 = add nsw i32 %151, 1
  store i32 %152, i32* %144, align 4, !tbaa !103
  %153 = sext i32 %151 to i64
  %154 = getelementptr inbounds %"class.Minisat::vec.5"* %142, i64 0, i32 0
  %155 = load i8** %154, align 8, !tbaa !102
  %156 = getelementptr inbounds i8* %155, i64 %153
  store i8 %143, i8* %156, align 1, !tbaa !59
  %157 = getelementptr inbounds %"class.Minisat::Solver"* %this, i64 0, i32 40
  %158 = getelementptr inbounds %"class.Minisat::Solver"* %this, i64 0, i32 40, i32 1
  %159 = load i32* %158, align 4, !tbaa !103
  %160 = getelementptr inbounds %"class.Minisat::Solver"* %this, i64 0, i32 40, i32 2
  %161 = load i32* %160, align 4, !tbaa !104
  %162 = icmp eq i32 %159, %161
  br i1 %162, label %163, label %165

; <label>:163                                     ; preds = %_ZN7Minisat3vecIcE4pushERKc.exit
  %164 = add nsw i32 %159, 1
  tail call void @_ZN7Minisat3vecIcE8capacityEi(%"class.Minisat::vec.5"* %157, i32 %164)
  %.pre.i13 = load i32* %158, align 4, !tbaa !103
  br label %165

; <label>:165                                     ; preds = %163, %_ZN7Minisat3vecIcE4pushERKc.exit
  %166 = phi i32 [ %.pre.i13, %163 ], [ %159, %_ZN7Minisat3vecIcE4pushERKc.exit ]
  %167 = sext i32 %166 to i64
  %168 = getelementptr inbounds %"class.Minisat::vec.5"* %157, i64 0, i32 0
  %169 = load i8** %168, align 8, !tbaa !102
  %170 = getelementptr inbounds i8* %169, i64 %167
  %171 = icmp eq i8* %170, null
  br i1 %171, label %_ZN7Minisat3vecIcE4pushEv.exit, label %172

; <label>:172                                     ; preds = %165
  store i8 0, i8* %170, align 1, !tbaa !59
  %.pre1.i = load i32* %158, align 4, !tbaa !103
  br label %_ZN7Minisat3vecIcE4pushEv.exit

_ZN7Minisat3vecIcE4pushEv.exit:                   ; preds = %172, %165
  %173 = phi i32 [ %.pre1.i, %172 ], [ %166, %165 ]
  %174 = add nsw i32 %173, 1
  store i32 %174, i32* %158, align 4, !tbaa !103
  %175 = getelementptr inbounds %"class.Minisat::Solver"* %this, i64 0, i32 41
  %176 = add nsw i32 %2, 1
  tail call void @_ZN7Minisat3vecINS_3LitEE8capacityEi(%"class.Minisat::vec.0"* %175, i32 %176)
  %177 = sext i32 %2 to i64
  %178 = getelementptr inbounds %"class.Minisat::Solver"* %this, i64 0, i32 40, i32 0
  %179 = load i8** %178, align 8, !tbaa !102
  %180 = getelementptr inbounds i8* %179, i64 %177
  %181 = load i8* %180, align 1, !tbaa !59
  %182 = icmp eq i8 %181, 0
  br i1 %dvar, label %183, label %.critedge.i

; <label>:183                                     ; preds = %_ZN7Minisat3vecIcE4pushEv.exit
  br i1 %182, label %184, label %.thread.i

; <label>:184                                     ; preds = %183
  %185 = getelementptr inbounds %"class.Minisat::Solver"* %this, i64 0, i32 26
  %186 = load i64* %185, align 8, !tbaa !121
  %187 = add i64 %186, 1
  store i64 %187, i64* %185, align 8, !tbaa !121
  br label %.thread.i

.critedge.i:                                      ; preds = %_ZN7Minisat3vecIcE4pushEv.exit
  br i1 %182, label %.thread.i, label %188

; <label>:188                                     ; preds = %.critedge.i
  %189 = getelementptr inbounds %"class.Minisat::Solver"* %this, i64 0, i32 26
  %190 = load i64* %189, align 8, !tbaa !121
  %191 = add i64 %190, -1
  store i64 %191, i64* %189, align 8, !tbaa !121
  br label %.thread.i

.thread.i:                                        ; preds = %188, %.critedge.i, %184, %183
  %192 = zext i1 %dvar to i8
  store i8 %192, i8* %180, align 1, !tbaa !59
  %193 = getelementptr inbounds %"class.Minisat::Solver"* %this, i64 0, i32 48
  %194 = getelementptr inbounds %"class.Minisat::Solver"* %this, i64 0, i32 48, i32 2, i32 1
  %195 = load i32* %194, align 4, !tbaa !98
  %196 = icmp sgt i32 %195, %2
  br i1 %196, label %_ZNK7Minisat4HeapINS_6Solver10VarOrderLtEE6inHeapEi.exit.i.i, label %_ZNK7Minisat4HeapINS_6Solver10VarOrderLtEE6inHeapEi.exit.thread.i.i

_ZNK7Minisat4HeapINS_6Solver10VarOrderLtEE6inHeapEi.exit.i.i: ; preds = %.thread.i
  %197 = getelementptr inbounds %"class.Minisat::Solver"* %this, i64 0, i32 48, i32 2, i32 0
  %198 = load i32** %197, align 8, !tbaa !97
  %199 = getelementptr inbounds i32* %198, i64 %177
  %200 = load i32* %199, align 4, !tbaa !36
  %201 = icmp sgt i32 %200, -1
  br i1 %201, label %_ZN7Minisat6Solver14setDecisionVarEib.exit, label %_ZNK7Minisat4HeapINS_6Solver10VarOrderLtEE6inHeapEi.exit.thread.i.i

_ZNK7Minisat4HeapINS_6Solver10VarOrderLtEE6inHeapEi.exit.thread.i.i: ; preds = %_ZNK7Minisat4HeapINS_6Solver10VarOrderLtEE6inHeapEi.exit.i.i, %.thread.i
  %202 = load i8** %178, align 8, !tbaa !102
  %203 = getelementptr inbounds i8* %202, i64 %177
  %204 = load i8* %203, align 1, !tbaa !59
  %205 = icmp eq i8 %204, 0
  br i1 %205, label %_ZN7Minisat6Solver14setDecisionVarEib.exit, label %206

; <label>:206                                     ; preds = %_ZNK7Minisat4HeapINS_6Solver10VarOrderLtEE6inHeapEi.exit.thread.i.i
  tail call void @_ZN7Minisat4HeapINS_6Solver10VarOrderLtEE6insertEi(%"class.Minisat::Heap"* %193, i32 %2)
  br label %_ZN7Minisat6Solver14setDecisionVarEib.exit

_ZN7Minisat6Solver14setDecisionVarEib.exit:       ; preds = %206, %_ZNK7Minisat4HeapINS_6Solver10VarOrderLtEE6inHeapEi.exit.thread.i.i, %_ZNK7Minisat4HeapINS_6Solver10VarOrderLtEE6inHeapEi.exit.i.i
  ret i32 %2
}

; Function Attrs: ssp uwtable
define zeroext i1 @_ZN7Minisat6Solver10addClause_ERNS_3vecINS_3LitEEE(%"class.Minisat::Solver"* nocapture %this, %"class.Minisat::vec.0"* nocapture %ps) #0 align 2 {
  %1 = getelementptr inbounds %"class.Minisat::Solver"* %this, i64 0, i32 42, i32 1
  %2 = load i32* %1, align 4, !tbaa !98
  %3 = icmp eq i32 %2, 0
  br i1 %3, label %5, label %4, !prof !122

; <label>:4                                       ; preds = %0
  tail call void @__assert_rtn(i8* getelementptr inbounds ([11 x i8]* @__func__._ZN7Minisat6Solver10addClause_ERNS_3vecINS_3LitEEE, i64 0, i64 0), i8* getelementptr inbounds ([50 x i8]* @.str3232, i64 0, i64 0), i32 134, i8* getelementptr inbounds ([21 x i8]* @.str3333, i64 0, i64 0)) #16
  unreachable

; <label>:5                                       ; preds = %0
  %6 = getelementptr inbounds %"class.Minisat::Solver"* %this, i64 0, i32 31
  %7 = load i8* %6, align 1, !tbaa !91, !range !78
  %8 = icmp eq i8 %7, 0
  br i1 %8, label %.loopexit, label %9

; <label>:9                                       ; preds = %5
  %10 = getelementptr inbounds %"class.Minisat::vec.0"* %ps, i64 0, i32 0
  %11 = load %"struct.Minisat::Lit"** %10, align 8, !tbaa !60
  %12 = getelementptr inbounds %"class.Minisat::vec.0"* %ps, i64 0, i32 1
  %13 = load i32* %12, align 4, !tbaa !61
  tail call void @_ZN7Minisat4sortINS_3LitENS_16LessThan_defaultIS1_EEEEvPT_iT0_(%"struct.Minisat::Lit"* %11, i32 %13) #2
  %14 = load i32* %12, align 4, !tbaa !61
  %15 = icmp sgt i32 %14, 0
  br i1 %15, label %.lr.ph, label %._crit_edge

.lr.ph:                                           ; preds = %9
  %16 = getelementptr inbounds %"class.Minisat::Solver"* %this, i64 0, i32 38, i32 0
  br label %17

; <label>:17                                      ; preds = %39, %.lr.ph
  %18 = phi i32 [ %14, %.lr.ph ], [ %40, %39 ]
  %indvars.iv = phi i64 [ 0, %.lr.ph ], [ %indvars.iv.next, %39 ]
  %p.sroa.0.017 = phi i32 [ -2, %.lr.ph ], [ %p.sroa.0.1, %39 ]
  %j.015 = phi i32 [ 0, %.lr.ph ], [ %j.1, %39 ]
  %19 = load %"struct.Minisat::Lit"** %10, align 8, !tbaa !60
  %20 = getelementptr inbounds %"struct.Minisat::Lit"* %19, i64 %indvars.iv, i32 0
  %21 = load i32* %20, align 4
  %22 = ashr i32 %21, 1
  %23 = sext i32 %22 to i64
  %24 = load %"class.Minisat::lbool"** %16, align 8, !tbaa !65
  %25 = getelementptr inbounds %"class.Minisat::lbool"* %24, i64 %23, i32 0
  %26 = load i8* %25, align 1, !tbaa !66
  %p.coerce.tr.i = trunc i32 %21 to i8
  %27 = and i8 %p.coerce.tr.i, 1
  %28 = icmp eq i8 %26, %27
  %29 = xor i32 %p.sroa.0.017, 1
  %30 = icmp eq i32 %21, %29
  %or.cond = or i1 %28, %30
  br i1 %or.cond, label %.loopexit, label %31

; <label>:31                                      ; preds = %17
  %32 = xor i8 %26, %27
  %33 = icmp ne i8 %32, 1
  %34 = icmp ne i32 %21, %p.sroa.0.017
  %or.cond11 = and i1 %34, %33
  br i1 %or.cond11, label %35, label %39

; <label>:35                                      ; preds = %31
  %36 = add nsw i32 %j.015, 1
  %37 = sext i32 %j.015 to i64
  %38 = getelementptr inbounds %"struct.Minisat::Lit"* %19, i64 %37, i32 0
  store i32 %21, i32* %38, align 4
  %.pre = load i32* %12, align 4, !tbaa !61
  br label %39

; <label>:39                                      ; preds = %35, %31
  %40 = phi i32 [ %.pre, %35 ], [ %18, %31 ]
  %j.1 = phi i32 [ %36, %35 ], [ %j.015, %31 ]
  %p.sroa.0.1 = phi i32 [ %21, %35 ], [ %p.sroa.0.017, %31 ]
  %indvars.iv.next = add nuw nsw i64 %indvars.iv, 1
  %41 = trunc i64 %indvars.iv.next to i32
  %42 = icmp slt i32 %41, %40
  br i1 %42, label %17, label %._crit_edge

._crit_edge:                                      ; preds = %39, %9
  %.pr = phi i32 [ %14, %9 ], [ %40, %39 ]
  %i.0.lcssa = phi i32 [ 0, %9 ], [ %41, %39 ]
  %j.0.lcssa = phi i32 [ 0, %9 ], [ %j.1, %39 ]
  %43 = sub nsw i32 %i.0.lcssa, %j.0.lcssa
  %44 = icmp slt i32 %.pr, %43
  br i1 %44, label %47, label %.preheader.i, !prof !123

.preheader.i:                                     ; preds = %._crit_edge
  %45 = icmp sgt i32 %43, 0
  br i1 %45, label %.lr.ph.i, label %_ZN7Minisat3vecINS_3LitEE6shrinkEi.exit

.lr.ph.i:                                         ; preds = %.preheader.i
  %46 = sub i32 %.pr, %43
  store i32 %46, i32* %12, align 4, !tbaa !61
  br label %_ZN7Minisat3vecINS_3LitEE6shrinkEi.exit

; <label>:47                                      ; preds = %._crit_edge
  tail call void @__assert_rtn(i8* getelementptr inbounds ([7 x i8]* @__func__._ZN7Minisat3vecIjE6shrinkEi, i64 0, i64 0), i8* getelementptr inbounds ([45 x i8]* @.str58, i64 0, i64 0), i32 64, i8* getelementptr inbounds ([13 x i8]* @.str59, i64 0, i64 0)) #16
  unreachable

_ZN7Minisat3vecINS_3LitEE6shrinkEi.exit:          ; preds = %.lr.ph.i, %.preheader.i
  %48 = phi i32 [ %46, %.lr.ph.i ], [ %.pr, %.preheader.i ]
  switch i32 %48, label %90 [
    i32 0, label %49
    i32 1, label %50
  ]

; <label>:49                                      ; preds = %_ZN7Minisat3vecINS_3LitEE6shrinkEi.exit
  store i8 0, i8* %6, align 1, !tbaa !91
  br label %.loopexit

; <label>:50                                      ; preds = %_ZN7Minisat3vecINS_3LitEE6shrinkEi.exit
  %51 = load %"struct.Minisat::Lit"** %10, align 8, !tbaa !60
  %52 = getelementptr inbounds %"struct.Minisat::Lit"* %51, i64 0, i32 0
  %53 = load i32* %52, align 4
  %54 = ashr i32 %53, 1
  %55 = sext i32 %54 to i64
  %56 = getelementptr inbounds %"class.Minisat::Solver"* %this, i64 0, i32 38, i32 0
  %57 = load %"class.Minisat::lbool"** %56, align 8, !tbaa !65
  %58 = getelementptr inbounds %"class.Minisat::lbool"* %57, i64 %55, i32 0
  %59 = load i8* %58, align 1, !tbaa !66
  %60 = and i8 %59, 2
  %61 = icmp eq i8 %60, 0
  br i1 %61, label %62, label %63, !prof !123

; <label>:62                                      ; preds = %50
  tail call void @__assert_rtn(i8* getelementptr inbounds ([17 x i8]* @__func__._ZN7Minisat6Solver16uncheckedEnqueueENS_3LitEj, i64 0, i64 0), i8* getelementptr inbounds ([50 x i8]* @.str3232, i64 0, i64 0), i32 432, i8* getelementptr inbounds ([20 x i8]* @.str3838, i64 0, i64 0)) #16
  unreachable

; <label>:63                                      ; preds = %50
  %64 = and i32 %53, 1
  %65 = xor i32 %64, 1
  %66 = trunc i32 %65 to i8
  %67 = xor i8 %66, 1
  store i8 %67, i8* %58, align 1, !tbaa !59
  %68 = getelementptr inbounds %"class.Minisat::Solver"* %this, i64 0, i32 43, i32 0
  %69 = load %"struct.Minisat::Solver::VarData"** %68, align 8, !tbaa !100
  %70 = getelementptr inbounds %"struct.Minisat::Solver::VarData"* %69, i64 %55
  %71 = load i32* %1, align 4, !tbaa !98
  %72 = zext i32 %71 to i64
  %73 = shl nuw i64 %72, 32
  %74 = or i64 %73, 4294967295
  %75 = bitcast %"struct.Minisat::Solver::VarData"* %70 to i64*
  store i64 %74, i64* %75, align 4
  %76 = getelementptr inbounds %"class.Minisat::Solver"* %this, i64 0, i32 41, i32 1
  %77 = load i32* %76, align 4, !tbaa !61
  %78 = getelementptr inbounds %"class.Minisat::Solver"* %this, i64 0, i32 41, i32 2
  %79 = load i32* %78, align 4, !tbaa !62
  %80 = icmp slt i32 %77, %79
  br i1 %80, label %_ZN7Minisat6Solver16uncheckedEnqueueENS_3LitEj.exit, label %81, !prof !122

; <label>:81                                      ; preds = %63
  tail call void @__assert_rtn(i8* getelementptr inbounds ([6 x i8]* @__func__._ZN7Minisat3vecINS_3LitEE5push_ERKS1_, i64 0, i64 0), i8* getelementptr inbounds ([45 x i8]* @.str58, i64 0, i64 0), i32 75, i8* getelementptr inbounds ([9 x i8]* @.str62, i64 0, i64 0)) #16
  unreachable

_ZN7Minisat6Solver16uncheckedEnqueueENS_3LitEj.exit: ; preds = %63
  %82 = add nsw i32 %77, 1
  store i32 %82, i32* %76, align 4, !tbaa !61
  %83 = sext i32 %77 to i64
  %84 = getelementptr inbounds %"class.Minisat::Solver"* %this, i64 0, i32 41, i32 0
  %85 = load %"struct.Minisat::Lit"** %84, align 8, !tbaa !60
  %86 = getelementptr inbounds %"struct.Minisat::Lit"* %85, i64 %83, i32 0
  store i32 %53, i32* %86, align 4, !tbaa !36
  %87 = tail call i32 @_ZN7Minisat6Solver9propagateEv(%"class.Minisat::Solver"* %this)
  %88 = icmp eq i32 %87, -1
  %89 = zext i1 %88 to i8
  store i8 %89, i8* %6, align 1, !tbaa !91
  br label %.loopexit

; <label>:90                                      ; preds = %_ZN7Minisat3vecINS_3LitEE6shrinkEi.exit
  %91 = getelementptr inbounds %"class.Minisat::Solver"* %this, i64 0, i32 52
  %92 = tail call i32 @_ZN7Minisat15ClauseAllocator5allocINS_3vecINS_3LitEEEEEjRKT_b(%"class.Minisat::ClauseAllocator"* %91, %"class.Minisat::vec.0"* %ps, i1 zeroext false)
  %93 = getelementptr inbounds %"class.Minisat::Solver"* %this, i64 0, i32 32
  %94 = getelementptr inbounds %"class.Minisat::Solver"* %this, i64 0, i32 32, i32 1
  %95 = load i32* %94, align 4, !tbaa !64
  %96 = getelementptr inbounds %"class.Minisat::Solver"* %this, i64 0, i32 32, i32 2
  %97 = load i32* %96, align 4, !tbaa !118
  %98 = icmp eq i32 %95, %97
  br i1 %98, label %99, label %_ZN7Minisat3vecIjE4pushERKj.exit

; <label>:99                                      ; preds = %90
  %100 = add nsw i32 %95, 1
  tail call void @_ZN7Minisat3vecIjE8capacityEi(%"class.Minisat::vec.1"* %93, i32 %100)
  %.pre.i = load i32* %94, align 4, !tbaa !64
  br label %_ZN7Minisat3vecIjE4pushERKj.exit

_ZN7Minisat3vecIjE4pushERKj.exit:                 ; preds = %99, %90
  %101 = phi i32 [ %.pre.i, %99 ], [ %95, %90 ]
  %102 = add nsw i32 %101, 1
  store i32 %102, i32* %94, align 4, !tbaa !64
  %103 = sext i32 %101 to i64
  %104 = getelementptr inbounds %"class.Minisat::vec.1"* %93, i64 0, i32 0
  %105 = load i32** %104, align 8, !tbaa !117
  %106 = getelementptr inbounds i32* %105, i64 %103
  store i32 %92, i32* %106, align 4, !tbaa !36
  tail call void @_ZN7Minisat6Solver12attachClauseEj(%"class.Minisat::Solver"* %this, i32 %92)
  br label %.loopexit

.loopexit:                                        ; preds = %_ZN7Minisat3vecIjE4pushERKj.exit, %_ZN7Minisat6Solver16uncheckedEnqueueENS_3LitEj.exit, %49, %17, %5
  %.0 = phi i1 [ false, %49 ], [ %88, %_ZN7Minisat6Solver16uncheckedEnqueueENS_3LitEj.exit ], [ true, %_ZN7Minisat3vecIjE4pushERKj.exit ], [ false, %5 ], [ true, %17 ]
  ret i1 %.0
}

; Function Attrs: noreturn
declare void @__assert_rtn(i8*, i8*, i32, i8*) #5

; Function Attrs: nounwind
declare void @llvm.memcpy.p0i8.p0i8.i64(i8* nocapture, i8* nocapture readonly, i64, i32, i1) #2

; Function Attrs: ssp uwtable
define void @_ZN7Minisat6Solver16uncheckedEnqueueENS_3LitEj(%"class.Minisat::Solver"* nocapture %this, i32 %p.coerce, i32 %from) #0 align 2 {
  %1 = ashr i32 %p.coerce, 1
  %2 = sext i32 %1 to i64
  %3 = getelementptr inbounds %"class.Minisat::Solver"* %this, i64 0, i32 38, i32 0
  %4 = load %"class.Minisat::lbool"** %3, align 8, !tbaa !65
  %5 = getelementptr inbounds %"class.Minisat::lbool"* %4, i64 %2, i32 0
  %6 = load i8* %5, align 1, !tbaa !66
  %7 = and i8 %6, 2
  %8 = icmp eq i8 %7, 0
  br i1 %8, label %9, label %10, !prof !123

; <label>:9                                       ; preds = %0
  tail call void @__assert_rtn(i8* getelementptr inbounds ([17 x i8]* @__func__._ZN7Minisat6Solver16uncheckedEnqueueENS_3LitEj, i64 0, i64 0), i8* getelementptr inbounds ([50 x i8]* @.str3232, i64 0, i64 0), i32 432, i8* getelementptr inbounds ([20 x i8]* @.str3838, i64 0, i64 0)) #16
  unreachable

; <label>:10                                      ; preds = %0
  %11 = and i32 %p.coerce, 1
  %12 = xor i32 %11, 1
  %13 = trunc i32 %12 to i8
  %14 = xor i8 %13, 1
  store i8 %14, i8* %5, align 1, !tbaa !59
  %15 = getelementptr inbounds %"class.Minisat::Solver"* %this, i64 0, i32 43, i32 0
  %16 = load %"struct.Minisat::Solver::VarData"** %15, align 8, !tbaa !100
  %17 = getelementptr inbounds %"struct.Minisat::Solver::VarData"* %16, i64 %2
  %18 = getelementptr inbounds %"class.Minisat::Solver"* %this, i64 0, i32 42, i32 1
  %19 = load i32* %18, align 4, !tbaa !98
  %20 = zext i32 %19 to i64
  %21 = shl nuw i64 %20, 32
  %22 = zext i32 %from to i64
  %23 = or i64 %21, %22
  %24 = bitcast %"struct.Minisat::Solver::VarData"* %17 to i64*
  store i64 %23, i64* %24, align 4
  %25 = getelementptr inbounds %"class.Minisat::Solver"* %this, i64 0, i32 41, i32 1
  %26 = load i32* %25, align 4, !tbaa !61
  %27 = getelementptr inbounds %"class.Minisat::Solver"* %this, i64 0, i32 41, i32 2
  %28 = load i32* %27, align 4, !tbaa !62
  %29 = icmp slt i32 %26, %28
  br i1 %29, label %_ZN7Minisat3vecINS_3LitEE5push_ERKS1_.exit, label %30, !prof !122

; <label>:30                                      ; preds = %10
  tail call void @__assert_rtn(i8* getelementptr inbounds ([6 x i8]* @__func__._ZN7Minisat3vecINS_3LitEE5push_ERKS1_, i64 0, i64 0), i8* getelementptr inbounds ([45 x i8]* @.str58, i64 0, i64 0), i32 75, i8* getelementptr inbounds ([9 x i8]* @.str62, i64 0, i64 0)) #16
  unreachable

_ZN7Minisat3vecINS_3LitEE5push_ERKS1_.exit:       ; preds = %10
  %31 = add nsw i32 %26, 1
  store i32 %31, i32* %25, align 4, !tbaa !61
  %32 = sext i32 %26 to i64
  %33 = getelementptr inbounds %"class.Minisat::Solver"* %this, i64 0, i32 41, i32 0
  %34 = load %"struct.Minisat::Lit"** %33, align 8, !tbaa !60
  %35 = getelementptr inbounds %"struct.Minisat::Lit"* %34, i64 %32, i32 0
  store i32 %p.coerce, i32* %35, align 4, !tbaa !36
  ret void
}

; Function Attrs: ssp uwtable
define i32 @_ZN7Minisat6Solver9propagateEv(%"class.Minisat::Solver"* nocapture %this) #0 align 2 {
  %1 = getelementptr inbounds %"class.Minisat::Solver"* %this, i64 0, i32 37
  %2 = getelementptr inbounds %"class.Minisat::Solver"* %this, i64 0, i32 37, i32 2, i32 1
  %3 = load i32* %2, align 4, !tbaa !61
  %4 = icmp sgt i32 %3, 0
  %5 = getelementptr inbounds %"class.Minisat::Solver"* %this, i64 0, i32 37, i32 2, i32 0
  br i1 %4, label %.lr.ph.i, label %._crit_edge.i

.lr.ph.i:                                         ; preds = %0
  %6 = getelementptr inbounds %"class.Minisat::Solver"* %this, i64 0, i32 37, i32 1, i32 0
  br label %7

; <label>:7                                       ; preds = %19, %.lr.ph.i
  %8 = phi i32 [ %3, %.lr.ph.i ], [ %20, %19 ]
  %indvars.iv.i = phi i64 [ 0, %.lr.ph.i ], [ %indvars.iv.next.i, %19 ]
  %9 = load %"struct.Minisat::Lit"** %5, align 8, !tbaa !60
  %10 = getelementptr inbounds %"struct.Minisat::Lit"* %9, i64 %indvars.iv.i
  %11 = getelementptr inbounds %"struct.Minisat::Lit"* %10, i64 0, i32 0
  %12 = load i32* %11, align 4
  %13 = sext i32 %12 to i64
  %14 = load i8** %6, align 8, !tbaa !102
  %15 = getelementptr inbounds i8* %14, i64 %13
  %16 = load i8* %15, align 1, !tbaa !59
  %17 = icmp eq i8 %16, 0
  br i1 %17, label %19, label %18

; <label>:18                                      ; preds = %7
  tail call void @_ZN7Minisat8OccListsINS_3LitENS_3vecINS_6Solver7WatcherEEENS3_14WatcherDeletedEE5cleanERKS1_(%"class.Minisat::OccLists"* %1, %"struct.Minisat::Lit"* %10)
  %.pre.i = load i32* %2, align 4, !tbaa !61
  br label %19

; <label>:19                                      ; preds = %18, %7
  %20 = phi i32 [ %8, %7 ], [ %.pre.i, %18 ]
  %indvars.iv.next.i = add nuw nsw i64 %indvars.iv.i, 1
  %21 = trunc i64 %indvars.iv.next.i to i32
  %22 = icmp slt i32 %21, %20
  br i1 %22, label %7, label %._crit_edge.i

._crit_edge.i:                                    ; preds = %19, %0
  %23 = load %"struct.Minisat::Lit"** %5, align 8, !tbaa !60
  %24 = icmp eq %"struct.Minisat::Lit"* %23, null
  br i1 %24, label %_ZN7Minisat8OccListsINS_3LitENS_3vecINS_6Solver7WatcherEEENS3_14WatcherDeletedEE8cleanAllEv.exit.preheader, label %.preheader.i.i

.preheader.i.i:                                   ; preds = %._crit_edge.i
  store i32 0, i32* %2, align 4, !tbaa !61
  br label %_ZN7Minisat8OccListsINS_3LitENS_3vecINS_6Solver7WatcherEEENS3_14WatcherDeletedEE8cleanAllEv.exit.preheader

_ZN7Minisat8OccListsINS_3LitENS_3vecINS_6Solver7WatcherEEENS3_14WatcherDeletedEE8cleanAllEv.exit.preheader: ; preds = %.preheader.i.i, %._crit_edge.i
  %25 = getelementptr inbounds %"class.Minisat::Solver"* %this, i64 0, i32 44
  %26 = load i32* %25, align 4, !tbaa !124
  %27 = getelementptr inbounds %"class.Minisat::Solver"* %this, i64 0, i32 41, i32 1
  %28 = load i32* %27, align 4, !tbaa !61
  %29 = icmp slt i32 %26, %28
  br i1 %29, label %.lr.ph131, label %216

.lr.ph131:                                        ; preds = %_ZN7Minisat8OccListsINS_3LitENS_3vecINS_6Solver7WatcherEEENS3_14WatcherDeletedEE8cleanAllEv.exit.preheader
  %30 = getelementptr inbounds %"class.Minisat::Solver"* %this, i64 0, i32 41, i32 0
  %31 = getelementptr inbounds %"class.Minisat::OccLists"* %1, i64 0, i32 0, i32 0
  %32 = getelementptr inbounds %"class.Minisat::Solver"* %this, i64 0, i32 38, i32 0
  %33 = getelementptr inbounds %"class.Minisat::Solver"* %this, i64 0, i32 52, i32 0, i64 8
  %34 = bitcast i8* %33 to i32*
  %35 = getelementptr inbounds %"class.Minisat::Solver"* %this, i64 0, i32 52
  %36 = bitcast %"class.Minisat::ClauseAllocator"* %35 to i32**
  %37 = getelementptr inbounds %"class.Minisat::Solver"* %this, i64 0, i32 43, i32 0
  %38 = getelementptr inbounds %"class.Minisat::Solver"* %this, i64 0, i32 42, i32 1
  %39 = getelementptr inbounds %"class.Minisat::Solver"* %this, i64 0, i32 41, i32 2
  br label %40

; <label>:40                                      ; preds = %_ZN7Minisat8OccListsINS_3LitENS_3vecINS_6Solver7WatcherEEENS3_14WatcherDeletedEE8cleanAllEv.exit.backedge, %.lr.ph131
  %41 = phi i32 [ %26, %.lr.ph131 ], [ %211, %_ZN7Minisat8OccListsINS_3LitENS_3vecINS_6Solver7WatcherEEENS3_14WatcherDeletedEE8cleanAllEv.exit.backedge ]
  %confl.0130 = phi i32 [ -1, %.lr.ph131 ], [ %confl.1.ph.ph111, %_ZN7Minisat8OccListsINS_3LitENS_3vecINS_6Solver7WatcherEEENS3_14WatcherDeletedEE8cleanAllEv.exit.backedge ]
  %num_props.0129 = phi i32 [ 0, %.lr.ph131 ], [ %49, %_ZN7Minisat8OccListsINS_3LitENS_3vecINS_6Solver7WatcherEEENS3_14WatcherDeletedEE8cleanAllEv.exit.backedge ]
  %42 = add nsw i32 %41, 1
  store i32 %42, i32* %25, align 4, !tbaa !124
  %43 = sext i32 %41 to i64
  %44 = load %"struct.Minisat::Lit"** %30, align 8, !tbaa !60
  %45 = getelementptr inbounds %"struct.Minisat::Lit"* %44, i64 %43, i32 0
  %46 = load i32* %45, align 4, !tbaa !36
  %47 = sext i32 %46 to i64
  %48 = load %"class.Minisat::vec.4"** %31, align 8, !tbaa !107
  %49 = add nsw i32 %num_props.0129, 1
  %50 = getelementptr inbounds %"class.Minisat::vec.4"* %48, i64 %47, i32 0
  %51 = load %"struct.Minisat::Solver::Watcher"** %50, align 8, !tbaa !109
  %52 = getelementptr inbounds %"class.Minisat::vec.4"* %48, i64 %47, i32 1
  %53 = load i32* %52, align 4, !tbaa !111
  %54 = sext i32 %53 to i64
  %55 = getelementptr inbounds %"struct.Minisat::Solver::Watcher"* %51, i64 %54
  %56 = icmp eq i32 %53, 0
  br i1 %56, label %._crit_edge63, label %.lr.ph62.lr.ph.lr.ph

.lr.ph62.lr.ph.lr.ph:                             ; preds = %40
  %57 = bitcast %"struct.Minisat::Solver::Watcher"* %51 to i8*
  %58 = xor i32 %46, 1
  %59 = shl nsw i64 %54, 3
  %uglygep.sum = add i64 %59, -1
  br label %.lr.ph62.lr.ph

..loopexit_crit_edge:                             ; preds = %172
  %scevgep.sum = add i64 %171, 2
  %scevgep183 = getelementptr %"struct.Minisat::Solver::Watcher"* %i.061, i64 %scevgep.sum
  %scevgep184.sum = add i64 %171, 2
  %scevgep185 = getelementptr %"struct.Minisat::Solver::Watcher"* %j.0.ph88, i64 %scevgep184.sum
  br label %.loopexit

.loopexit:                                        ; preds = %168, %..loopexit_crit_edge
  %i.1.lcssa = phi %"struct.Minisat::Solver::Watcher"* [ %scevgep183, %..loopexit_crit_edge ], [ %98, %168 ]
  %j.1.lcssa = phi %"struct.Minisat::Solver::Watcher"* [ %scevgep185, %..loopexit_crit_edge ], [ %155, %168 ]
  %60 = icmp eq %"struct.Minisat::Solver::Watcher"* %i.1.lcssa, %55
  br i1 %60, label %._crit_edge63, label %.lr.ph62.lr.ph

.lr.ph62.lr.ph:                                   ; preds = %.loopexit, %.lr.ph62.lr.ph.lr.ph
  %confl.1.ph.ph115 = phi i32 [ %confl.0130, %.lr.ph62.lr.ph.lr.ph ], [ %80, %.loopexit ]
  %i.0.ph.ph114 = phi %"struct.Minisat::Solver::Watcher"* [ %51, %.lr.ph62.lr.ph.lr.ph ], [ %i.1.lcssa, %.loopexit ]
  %j.0.ph.ph113 = phi %"struct.Minisat::Solver::Watcher"* [ %51, %.lr.ph62.lr.ph.lr.ph ], [ %j.1.lcssa, %.loopexit ]
  br label %.lr.ph62

.lr.ph62:                                         ; preds = %.outer.backedge, %.lr.ph62.lr.ph
  %i.0.ph90 = phi %"struct.Minisat::Solver::Watcher"* [ %i.0.ph.ph114, %.lr.ph62.lr.ph ], [ %i.0.ph.be, %.outer.backedge ]
  %j.0.ph88 = phi %"struct.Minisat::Solver::Watcher"* [ %j.0.ph.ph113, %.lr.ph62.lr.ph ], [ %j.0.ph.be, %.outer.backedge ]
  br label %61

; <label>:61                                      ; preds = %_ZN7Minisat3vecINS_6Solver7WatcherEE4pushERKS2_.exit, %.lr.ph62
  %i.061 = phi %"struct.Minisat::Solver::Watcher"* [ %i.0.ph90, %.lr.ph62 ], [ %98, %_ZN7Minisat3vecINS_6Solver7WatcherEE4pushERKS2_.exit ]
  %62 = getelementptr inbounds %"struct.Minisat::Solver::Watcher"* %i.061, i64 0, i32 1, i32 0
  %63 = load i32* %62, align 4
  %64 = ashr i32 %63, 1
  %65 = sext i32 %64 to i64
  %66 = load %"class.Minisat::lbool"** %32, align 8, !tbaa !65
  %67 = getelementptr inbounds %"class.Minisat::lbool"* %66, i64 %65, i32 0
  %68 = load i8* %67, align 1, !tbaa !66
  %p.coerce.tr.i15 = trunc i32 %63 to i8
  %69 = and i8 %p.coerce.tr.i15, 1
  %70 = icmp eq i8 %68, %69
  br i1 %70, label %71, label %78

; <label>:71                                      ; preds = %61
  %72 = getelementptr inbounds %"struct.Minisat::Solver::Watcher"* %j.0.ph88, i64 1
  %73 = getelementptr inbounds %"struct.Minisat::Solver::Watcher"* %i.061, i64 1
  %74 = bitcast %"struct.Minisat::Solver::Watcher"* %i.061 to i64*
  %75 = bitcast %"struct.Minisat::Solver::Watcher"* %j.0.ph88 to i64*
  %76 = load i64* %74, align 4
  store i64 %76, i64* %75, align 4
  br label %.outer.backedge

.outer.backedge:                                  ; preds = %_ZN7Minisat6Solver16uncheckedEnqueueENS_3LitEj.exit, %111, %71
  %j.0.ph.be = phi %"struct.Minisat::Solver::Watcher"* [ %72, %71 ], [ %112, %111 ], [ %155, %_ZN7Minisat6Solver16uncheckedEnqueueENS_3LitEj.exit ]
  %i.0.ph.be = phi %"struct.Minisat::Solver::Watcher"* [ %73, %71 ], [ %98, %111 ], [ %98, %_ZN7Minisat6Solver16uncheckedEnqueueENS_3LitEj.exit ]
  %77 = icmp eq %"struct.Minisat::Solver::Watcher"* %i.0.ph.be, %55
  br i1 %77, label %._crit_edge63, label %.lr.ph62

; <label>:78                                      ; preds = %61
  %79 = getelementptr inbounds %"struct.Minisat::Solver::Watcher"* %i.061, i64 0, i32 0
  %80 = load i32* %79, align 4, !tbaa !125
  %81 = load i32* %34, align 4, !tbaa !128
  %phitmp.i.i = icmp ugt i32 %81, %80
  br i1 %phitmp.i.i, label %_ZN7Minisat15ClauseAllocatorixEj.exit, label %82, !prof !122

; <label>:82                                      ; preds = %78
  tail call void @__assert_rtn(i8* getelementptr inbounds ([11 x i8]* @__func__._ZNK7Minisat15RegionAllocatorIjEixEj, i64 0, i64 0), i8* getelementptr inbounds ([47 x i8]* @.str60, i64 0, i64 0), i32 63, i8* getelementptr inbounds ([17 x i8]* @.str61, i64 0, i64 0)) #16
  unreachable

_ZN7Minisat15ClauseAllocatorixEj.exit:            ; preds = %78
  %83 = zext i32 %80 to i64
  %84 = load i32** %36, align 8, !tbaa !119
  %85 = getelementptr inbounds i32* %84, i64 %83
  %86 = bitcast i32* %85 to %"class.Minisat::Clause"*
  %.sum = add i64 %83, 1
  %87 = getelementptr inbounds i32* %84, i64 %.sum
  %88 = load i32* %87, align 4, !tbaa !129
  %89 = icmp eq i32 %88, %58
  %.sum25 = add i64 %83, 2
  %90 = getelementptr inbounds i32* %84, i64 %.sum25
  br i1 %89, label %91, label %_ZN7Minisat15ClauseAllocatorixEj.exit._crit_edge

; <label>:91                                      ; preds = %_ZN7Minisat15ClauseAllocatorixEj.exit
  %92 = load i32* %90, align 4, !tbaa !36
  store i32 %92, i32* %87, align 4, !tbaa !36
  store i32 %58, i32* %90, align 4
  br label %_ZN7Minisat15ClauseAllocatorixEj.exit._crit_edge

_ZN7Minisat15ClauseAllocatorixEj.exit._crit_edge: ; preds = %91, %_ZN7Minisat15ClauseAllocatorixEj.exit
  %93 = phi i32 [ %92, %91 ], [ %88, %_ZN7Minisat15ClauseAllocatorixEj.exit ]
  %94 = load i32* %90, align 4, !tbaa !129
  %95 = icmp eq i32 %94, %58
  br i1 %95, label %97, label %96, !prof !122

; <label>:96                                      ; preds = %_ZN7Minisat15ClauseAllocatorixEj.exit._crit_edge
  tail call void @__assert_rtn(i8* getelementptr inbounds ([10 x i8]* @__func__._ZN7Minisat6Solver9propagateEv, i64 0, i64 0), i8* getelementptr inbounds ([50 x i8]* @.str3232, i64 0, i64 0), i32 474, i8* getelementptr inbounds ([18 x i8]* @.str3939, i64 0, i64 0)) #16
  unreachable

; <label>:97                                      ; preds = %_ZN7Minisat15ClauseAllocatorixEj.exit._crit_edge
  %98 = getelementptr inbounds %"struct.Minisat::Solver::Watcher"* %i.061, i64 1
  %99 = icmp eq i32 %93, %63
  br i1 %99, label %.preheader, label %103

.preheader:                                       ; preds = %103, %97
  %100 = load i32* %85, align 4
  %101 = icmp ugt i32 %100, 95
  br i1 %101, label %.lr.ph, label %._crit_edge

.lr.ph:                                           ; preds = %.preheader
  %102 = load %"class.Minisat::lbool"** %32, align 8, !tbaa !65
  br label %121

; <label>:103                                     ; preds = %97
  %104 = ashr i32 %93, 1
  %105 = sext i32 %104 to i64
  %106 = load %"class.Minisat::lbool"** %32, align 8, !tbaa !65
  %107 = getelementptr inbounds %"class.Minisat::lbool"* %106, i64 %105, i32 0
  %108 = load i8* %107, align 1, !tbaa !66
  %p.coerce.tr.i14 = trunc i32 %93 to i8
  %109 = and i8 %p.coerce.tr.i14, 1
  %110 = icmp eq i8 %108, %109
  br i1 %110, label %111, label %.preheader

; <label>:111                                     ; preds = %103
  %112 = getelementptr inbounds %"struct.Minisat::Solver::Watcher"* %j.0.ph88, i64 1
  %113 = bitcast %"struct.Minisat::Solver::Watcher"* %j.0.ph88 to i64*
  %114 = zext i32 %93 to i64
  %115 = shl nuw i64 %114, 32
  %116 = or i64 %115, %83
  store i64 %116, i64* %113, align 4
  br label %.outer.backedge

; <label>:117                                     ; preds = %121
  %118 = lshr i32 %100, 5
  %119 = trunc i64 %indvars.iv.next to i32
  %120 = icmp slt i32 %119, %118
  br i1 %120, label %121, label %._crit_edge

; <label>:121                                     ; preds = %117, %.lr.ph
  %indvars.iv = phi i64 [ 2, %.lr.ph ], [ %indvars.iv.next, %117 ]
  %122 = getelementptr inbounds %"class.Minisat::Clause"* %86, i64 0, i32 1, i64 %indvars.iv, i32 0, i32 0
  %123 = load i32* %122, align 4
  %124 = ashr i32 %123, 1
  %125 = sext i32 %124 to i64
  %126 = getelementptr inbounds %"class.Minisat::lbool"* %102, i64 %125, i32 0
  %127 = load i8* %126, align 1, !tbaa !66
  %p.coerce.tr.i13 = trunc i32 %123 to i8
  %128 = and i8 %p.coerce.tr.i13, 1
  %129 = xor i8 %127, %128
  %130 = icmp eq i8 %129, 1
  %indvars.iv.next = add nuw nsw i64 %indvars.iv, 1
  br i1 %130, label %117, label %131

; <label>:131                                     ; preds = %121
  store i32 %123, i32* %90, align 4, !tbaa !36
  store i32 %58, i32* %122, align 4
  %132 = load i32* %90, align 4
  %133 = xor i32 %132, 1
  %134 = sext i32 %133 to i64
  %135 = load %"class.Minisat::vec.4"** %31, align 8, !tbaa !107
  %136 = getelementptr inbounds %"class.Minisat::vec.4"* %135, i64 %134
  %137 = getelementptr inbounds %"class.Minisat::vec.4"* %135, i64 %134, i32 1
  %138 = load i32* %137, align 4, !tbaa !111
  %139 = getelementptr inbounds %"class.Minisat::vec.4"* %135, i64 %134, i32 2
  %140 = load i32* %139, align 4, !tbaa !112
  %141 = icmp eq i32 %138, %140
  br i1 %141, label %142, label %_ZN7Minisat3vecINS_6Solver7WatcherEE4pushERKS2_.exit

; <label>:142                                     ; preds = %131
  %143 = add nsw i32 %138, 1
  tail call void @_ZN7Minisat3vecINS_6Solver7WatcherEE8capacityEi(%"class.Minisat::vec.4"* %136, i32 %143)
  %.pre.i12 = load i32* %137, align 4, !tbaa !111
  br label %_ZN7Minisat3vecINS_6Solver7WatcherEE4pushERKS2_.exit

_ZN7Minisat3vecINS_6Solver7WatcherEE4pushERKS2_.exit: ; preds = %142, %131
  %144 = phi i32 [ %.pre.i12, %142 ], [ %138, %131 ]
  %145 = add nsw i32 %144, 1
  store i32 %145, i32* %137, align 4, !tbaa !111
  %146 = sext i32 %144 to i64
  %147 = getelementptr inbounds %"class.Minisat::vec.4"* %136, i64 0, i32 0
  %148 = load %"struct.Minisat::Solver::Watcher"** %147, align 8, !tbaa !109
  %149 = getelementptr inbounds %"struct.Minisat::Solver::Watcher"* %148, i64 %146
  %150 = bitcast %"struct.Minisat::Solver::Watcher"* %149 to i64*
  %151 = zext i32 %93 to i64
  %152 = shl nuw i64 %151, 32
  %153 = or i64 %152, %83
  store i64 %153, i64* %150, align 4
  %154 = icmp eq %"struct.Minisat::Solver::Watcher"* %98, %55
  br i1 %154, label %._crit_edge63, label %61

._crit_edge:                                      ; preds = %117, %.preheader
  %155 = getelementptr inbounds %"struct.Minisat::Solver::Watcher"* %j.0.ph88, i64 1
  %156 = bitcast %"struct.Minisat::Solver::Watcher"* %j.0.ph88 to i64*
  %157 = zext i32 %93 to i64
  %158 = shl nuw i64 %157, 32
  %159 = or i64 %158, %83
  store i64 %159, i64* %156, align 4
  %160 = ashr i32 %93, 1
  %161 = sext i32 %160 to i64
  %162 = load %"class.Minisat::lbool"** %32, align 8, !tbaa !65
  %163 = getelementptr inbounds %"class.Minisat::lbool"* %162, i64 %161, i32 0
  %164 = load i8* %163, align 1, !tbaa !66
  %p.coerce.tr.i = trunc i32 %93 to i8
  %165 = and i8 %p.coerce.tr.i, 1
  %166 = xor i8 %164, %165
  %167 = icmp eq i8 %166, 1
  br i1 %167, label %168, label %179

; <label>:168                                     ; preds = %._crit_edge
  %169 = load i32* %27, align 4, !tbaa !61
  store i32 %169, i32* %25, align 4, !tbaa !124
  %170 = icmp ult %"struct.Minisat::Solver::Watcher"* %98, %55
  br i1 %170, label %.lr.ph31, label %.loopexit

.lr.ph31:                                         ; preds = %168
  %.lcssa168180 = ptrtoint %"struct.Minisat::Solver::Watcher"* %98 to i64
  %scevgep179.sum = sub i64 %uglygep.sum, %.lcssa168180
  %scevgep181 = getelementptr i8* %57, i64 %scevgep179.sum
  %scevgep181182 = ptrtoint i8* %scevgep181 to i64
  %171 = lshr i64 %scevgep181182, 3
  br label %172

; <label>:172                                     ; preds = %172, %.lr.ph31
  %i.129 = phi %"struct.Minisat::Solver::Watcher"* [ %98, %.lr.ph31 ], [ %174, %172 ]
  %j.128 = phi %"struct.Minisat::Solver::Watcher"* [ %155, %.lr.ph31 ], [ %173, %172 ]
  %173 = getelementptr inbounds %"struct.Minisat::Solver::Watcher"* %j.128, i64 1
  %174 = getelementptr inbounds %"struct.Minisat::Solver::Watcher"* %i.129, i64 1
  %175 = bitcast %"struct.Minisat::Solver::Watcher"* %i.129 to i64*
  %176 = bitcast %"struct.Minisat::Solver::Watcher"* %j.128 to i64*
  %177 = load i64* %175, align 4
  store i64 %177, i64* %176, align 4
  %178 = icmp ult %"struct.Minisat::Solver::Watcher"* %174, %55
  br i1 %178, label %172, label %..loopexit_crit_edge

; <label>:179                                     ; preds = %._crit_edge
  %180 = and i8 %164, 2
  %181 = icmp eq i8 %180, 0
  br i1 %181, label %182, label %183, !prof !123

; <label>:182                                     ; preds = %179
  tail call void @__assert_rtn(i8* getelementptr inbounds ([17 x i8]* @__func__._ZN7Minisat6Solver16uncheckedEnqueueENS_3LitEj, i64 0, i64 0), i8* getelementptr inbounds ([50 x i8]* @.str3232, i64 0, i64 0), i32 432, i8* getelementptr inbounds ([20 x i8]* @.str3838, i64 0, i64 0)) #16
  unreachable

; <label>:183                                     ; preds = %179
  %184 = and i32 %93, 1
  %185 = xor i32 %184, 1
  %186 = trunc i32 %185 to i8
  %187 = xor i8 %186, 1
  store i8 %187, i8* %163, align 1, !tbaa !59
  %188 = load %"struct.Minisat::Solver::VarData"** %37, align 8, !tbaa !100
  %189 = getelementptr inbounds %"struct.Minisat::Solver::VarData"* %188, i64 %161
  %190 = load i32* %38, align 4, !tbaa !98
  %191 = zext i32 %190 to i64
  %192 = shl nuw i64 %191, 32
  %193 = or i64 %192, %83
  %194 = bitcast %"struct.Minisat::Solver::VarData"* %189 to i64*
  store i64 %193, i64* %194, align 4
  %195 = load i32* %27, align 4, !tbaa !61
  %196 = load i32* %39, align 4, !tbaa !62
  %197 = icmp slt i32 %195, %196
  br i1 %197, label %_ZN7Minisat6Solver16uncheckedEnqueueENS_3LitEj.exit, label %198, !prof !122

; <label>:198                                     ; preds = %183
  tail call void @__assert_rtn(i8* getelementptr inbounds ([6 x i8]* @__func__._ZN7Minisat3vecINS_3LitEE5push_ERKS1_, i64 0, i64 0), i8* getelementptr inbounds ([45 x i8]* @.str58, i64 0, i64 0), i32 75, i8* getelementptr inbounds ([9 x i8]* @.str62, i64 0, i64 0)) #16
  unreachable

_ZN7Minisat6Solver16uncheckedEnqueueENS_3LitEj.exit: ; preds = %183
  %199 = add nsw i32 %195, 1
  store i32 %199, i32* %27, align 4, !tbaa !61
  %200 = sext i32 %195 to i64
  %201 = load %"struct.Minisat::Lit"** %30, align 8, !tbaa !60
  %202 = getelementptr inbounds %"struct.Minisat::Lit"* %201, i64 %200, i32 0
  store i32 %93, i32* %202, align 4, !tbaa !36
  br label %.outer.backedge

._crit_edge63:                                    ; preds = %_ZN7Minisat3vecINS_6Solver7WatcherEE4pushERKS2_.exit, %.outer.backedge, %.loopexit, %40
  %confl.1.ph.ph111 = phi i32 [ %confl.0130, %40 ], [ %confl.1.ph.ph115, %_ZN7Minisat3vecINS_6Solver7WatcherEE4pushERKS2_.exit ], [ %confl.1.ph.ph115, %.outer.backedge ], [ %80, %.loopexit ]
  %j.0.ph72 = phi %"struct.Minisat::Solver::Watcher"* [ %51, %40 ], [ %j.0.ph88, %_ZN7Minisat3vecINS_6Solver7WatcherEE4pushERKS2_.exit ], [ %j.0.ph.be, %.outer.backedge ], [ %j.1.lcssa, %.loopexit ]
  %i.0.lcssa = phi %"struct.Minisat::Solver::Watcher"* [ %51, %40 ], [ %55, %_ZN7Minisat3vecINS_6Solver7WatcherEE4pushERKS2_.exit ], [ %55, %.outer.backedge ], [ %55, %.loopexit ]
  %203 = ptrtoint %"struct.Minisat::Solver::Watcher"* %i.0.lcssa to i64
  %204 = ptrtoint %"struct.Minisat::Solver::Watcher"* %j.0.ph72 to i64
  %205 = sub i64 %203, %204
  %206 = lshr exact i64 %205, 3
  %207 = trunc i64 %206 to i32
  %208 = load i32* %52, align 4, !tbaa !111
  %209 = icmp slt i32 %208, %207
  br i1 %209, label %215, label %.preheader.i, !prof !123

.preheader.i:                                     ; preds = %._crit_edge63
  %210 = icmp sgt i32 %207, 0
  br i1 %210, label %.lr.ph.i11, label %_ZN7Minisat8OccListsINS_3LitENS_3vecINS_6Solver7WatcherEEENS3_14WatcherDeletedEE8cleanAllEv.exit.backedge

_ZN7Minisat8OccListsINS_3LitENS_3vecINS_6Solver7WatcherEEENS3_14WatcherDeletedEE8cleanAllEv.exit.backedge: ; preds = %.lr.ph.i11, %.preheader.i
  %211 = load i32* %25, align 4, !tbaa !124
  %212 = load i32* %27, align 4, !tbaa !61
  %213 = icmp slt i32 %211, %212
  br i1 %213, label %40, label %_ZN7Minisat8OccListsINS_3LitENS_3vecINS_6Solver7WatcherEEENS3_14WatcherDeletedEE8cleanAllEv.exit._crit_edge

.lr.ph.i11:                                       ; preds = %.preheader.i
  %214 = sub i32 %208, %207
  store i32 %214, i32* %52, align 4, !tbaa !111
  br label %_ZN7Minisat8OccListsINS_3LitENS_3vecINS_6Solver7WatcherEEENS3_14WatcherDeletedEE8cleanAllEv.exit.backedge

; <label>:215                                     ; preds = %._crit_edge63
  tail call void @__assert_rtn(i8* getelementptr inbounds ([7 x i8]* @__func__._ZN7Minisat3vecIjE6shrinkEi, i64 0, i64 0), i8* getelementptr inbounds ([45 x i8]* @.str58, i64 0, i64 0), i32 64, i8* getelementptr inbounds ([13 x i8]* @.str59, i64 0, i64 0)) #16
  unreachable

_ZN7Minisat8OccListsINS_3LitENS_3vecINS_6Solver7WatcherEEENS3_14WatcherDeletedEE8cleanAllEv.exit._crit_edge: ; preds = %_ZN7Minisat8OccListsINS_3LitENS_3vecINS_6Solver7WatcherEEENS3_14WatcherDeletedEE8cleanAllEv.exit.backedge
  %phitmp = sext i32 %49 to i64
  br label %216

; <label>:216                                     ; preds = %_ZN7Minisat8OccListsINS_3LitENS_3vecINS_6Solver7WatcherEEENS3_14WatcherDeletedEE8cleanAllEv.exit._crit_edge, %_ZN7Minisat8OccListsINS_3LitENS_3vecINS_6Solver7WatcherEEENS3_14WatcherDeletedEE8cleanAllEv.exit.preheader
  %confl.0.lcssa = phi i32 [ %confl.1.ph.ph111, %_ZN7Minisat8OccListsINS_3LitENS_3vecINS_6Solver7WatcherEEENS3_14WatcherDeletedEE8cleanAllEv.exit._crit_edge ], [ -1, %_ZN7Minisat8OccListsINS_3LitENS_3vecINS_6Solver7WatcherEEENS3_14WatcherDeletedEE8cleanAllEv.exit.preheader ]
  %num_props.0.lcssa = phi i64 [ %phitmp, %_ZN7Minisat8OccListsINS_3LitENS_3vecINS_6Solver7WatcherEEENS3_14WatcherDeletedEE8cleanAllEv.exit._crit_edge ], [ 0, %_ZN7Minisat8OccListsINS_3LitENS_3vecINS_6Solver7WatcherEEENS3_14WatcherDeletedEE8cleanAllEv.exit.preheader ]
  %217 = getelementptr inbounds %"class.Minisat::Solver"* %this, i64 0, i32 24
  %218 = load i64* %217, align 8, !tbaa !33
  %219 = add i64 %218, %num_props.0.lcssa
  store i64 %219, i64* %217, align 8, !tbaa !33
  %220 = getelementptr inbounds %"class.Minisat::Solver"* %this, i64 0, i32 46
  %221 = load i64* %220, align 8, !tbaa !130
  %222 = sub nsw i64 %221, %num_props.0.lcssa
  store i64 %222, i64* %220, align 8, !tbaa !130
  ret i32 %confl.0.lcssa
}

; Function Attrs: ssp uwtable
define void @_ZN7Minisat6Solver12attachClauseEj(%"class.Minisat::Solver"* nocapture %this, i32 %cr) #0 align 2 {
  %1 = getelementptr inbounds %"class.Minisat::Solver"* %this, i64 0, i32 52, i32 0, i64 8
  %2 = bitcast i8* %1 to i32*
  %3 = load i32* %2, align 4, !tbaa !128
  %phitmp.i.i = icmp ugt i32 %3, %cr
  br i1 %phitmp.i.i, label %_ZN7Minisat15ClauseAllocatorixEj.exit, label %4, !prof !122

; <label>:4                                       ; preds = %0
  tail call void @__assert_rtn(i8* getelementptr inbounds ([11 x i8]* @__func__._ZNK7Minisat15RegionAllocatorIjEixEj, i64 0, i64 0), i8* getelementptr inbounds ([47 x i8]* @.str60, i64 0, i64 0), i32 63, i8* getelementptr inbounds ([17 x i8]* @.str61, i64 0, i64 0)) #16
  unreachable

_ZN7Minisat15ClauseAllocatorixEj.exit:            ; preds = %0
  %5 = getelementptr inbounds %"class.Minisat::Solver"* %this, i64 0, i32 52
  %6 = zext i32 %cr to i64
  %7 = bitcast %"class.Minisat::ClauseAllocator"* %5 to i32**
  %8 = load i32** %7, align 8, !tbaa !119
  %9 = getelementptr inbounds i32* %8, i64 %6
  %10 = load i32* %9, align 4
  %11 = icmp ult i32 %10, 64
  br i1 %11, label %12, label %13, !prof !123

; <label>:12                                      ; preds = %_ZN7Minisat15ClauseAllocatorixEj.exit
  tail call void @__assert_rtn(i8* getelementptr inbounds ([13 x i8]* @__func__._ZN7Minisat6Solver12attachClauseEj, i64 0, i64 0), i8* getelementptr inbounds ([50 x i8]* @.str3232, i64 0, i64 0), i32 164, i8* getelementptr inbounds ([13 x i8]* @.str3434, i64 0, i64 0)) #16
  unreachable

; <label>:13                                      ; preds = %_ZN7Minisat15ClauseAllocatorixEj.exit
  %.sum = add i64 %6, 1
  %14 = getelementptr inbounds i32* %8, i64 %.sum
  %15 = load i32* %14, align 4
  %16 = xor i32 %15, 1
  %17 = sext i32 %16 to i64
  %18 = getelementptr inbounds %"class.Minisat::Solver"* %this, i64 0, i32 37, i32 0, i32 0
  %19 = load %"class.Minisat::vec.4"** %18, align 8, !tbaa !107
  %20 = getelementptr inbounds %"class.Minisat::vec.4"* %19, i64 %17
  %.sum10 = add i64 %6, 2
  %21 = getelementptr inbounds i32* %8, i64 %.sum10
  %22 = load i32* %21, align 4
  %23 = getelementptr inbounds %"class.Minisat::vec.4"* %19, i64 %17, i32 1
  %24 = load i32* %23, align 4, !tbaa !111
  %25 = getelementptr inbounds %"class.Minisat::vec.4"* %19, i64 %17, i32 2
  %26 = load i32* %25, align 4, !tbaa !112
  %27 = icmp eq i32 %24, %26
  br i1 %27, label %28, label %_ZN7Minisat3vecINS_6Solver7WatcherEE4pushERKS2_.exit5

; <label>:28                                      ; preds = %13
  %29 = add nsw i32 %24, 1
  tail call void @_ZN7Minisat3vecINS_6Solver7WatcherEE8capacityEi(%"class.Minisat::vec.4"* %20, i32 %29)
  %.pre.i4 = load i32* %23, align 4, !tbaa !111
  br label %_ZN7Minisat3vecINS_6Solver7WatcherEE4pushERKS2_.exit5

_ZN7Minisat3vecINS_6Solver7WatcherEE4pushERKS2_.exit5: ; preds = %28, %13
  %30 = phi i32 [ %.pre.i4, %28 ], [ %24, %13 ]
  %31 = add nsw i32 %30, 1
  store i32 %31, i32* %23, align 4, !tbaa !111
  %32 = sext i32 %30 to i64
  %33 = getelementptr inbounds %"class.Minisat::vec.4"* %20, i64 0, i32 0
  %34 = load %"struct.Minisat::Solver::Watcher"** %33, align 8, !tbaa !109
  %35 = getelementptr inbounds %"struct.Minisat::Solver::Watcher"* %34, i64 %32
  %36 = bitcast %"struct.Minisat::Solver::Watcher"* %35 to i64*
  %37 = zext i32 %22 to i64
  %38 = shl nuw i64 %37, 32
  %39 = or i64 %38, %6
  store i64 %39, i64* %36, align 4
  %40 = load i32* %21, align 4
  %41 = xor i32 %40, 1
  %42 = sext i32 %41 to i64
  %43 = load %"class.Minisat::vec.4"** %18, align 8, !tbaa !107
  %44 = getelementptr inbounds %"class.Minisat::vec.4"* %43, i64 %42
  %45 = load i32* %14, align 4
  %46 = getelementptr inbounds %"class.Minisat::vec.4"* %43, i64 %42, i32 1
  %47 = load i32* %46, align 4, !tbaa !111
  %48 = getelementptr inbounds %"class.Minisat::vec.4"* %43, i64 %42, i32 2
  %49 = load i32* %48, align 4, !tbaa !112
  %50 = icmp eq i32 %47, %49
  br i1 %50, label %51, label %_ZN7Minisat3vecINS_6Solver7WatcherEE4pushERKS2_.exit

; <label>:51                                      ; preds = %_ZN7Minisat3vecINS_6Solver7WatcherEE4pushERKS2_.exit5
  %52 = add nsw i32 %47, 1
  tail call void @_ZN7Minisat3vecINS_6Solver7WatcherEE8capacityEi(%"class.Minisat::vec.4"* %44, i32 %52)
  %.pre.i = load i32* %46, align 4, !tbaa !111
  br label %_ZN7Minisat3vecINS_6Solver7WatcherEE4pushERKS2_.exit

_ZN7Minisat3vecINS_6Solver7WatcherEE4pushERKS2_.exit: ; preds = %51, %_ZN7Minisat3vecINS_6Solver7WatcherEE4pushERKS2_.exit5
  %53 = phi i32 [ %.pre.i, %51 ], [ %47, %_ZN7Minisat3vecINS_6Solver7WatcherEE4pushERKS2_.exit5 ]
  %54 = add nsw i32 %53, 1
  store i32 %54, i32* %46, align 4, !tbaa !111
  %55 = sext i32 %53 to i64
  %56 = getelementptr inbounds %"class.Minisat::vec.4"* %44, i64 0, i32 0
  %57 = load %"struct.Minisat::Solver::Watcher"** %56, align 8, !tbaa !109
  %58 = getelementptr inbounds %"struct.Minisat::Solver::Watcher"* %57, i64 %55
  %59 = bitcast %"struct.Minisat::Solver::Watcher"* %58 to i64*
  %60 = zext i32 %45 to i64
  %61 = shl nuw i64 %60, 32
  %62 = or i64 %61, %6
  store i64 %62, i64* %59, align 4
  %63 = load i32* %9, align 4
  %64 = and i32 %63, 4
  %65 = icmp eq i32 %64, 0
  %66 = lshr i32 %63, 5
  %67 = zext i32 %66 to i64
  br i1 %65, label %72, label %68

; <label>:68                                      ; preds = %_ZN7Minisat3vecINS_6Solver7WatcherEE4pushERKS2_.exit
  %69 = getelementptr inbounds %"class.Minisat::Solver"* %this, i64 0, i32 28
  %70 = load i64* %69, align 8, !tbaa !131
  %71 = add i64 %70, %67
  store i64 %71, i64* %69, align 8, !tbaa !131
  br label %76

; <label>:72                                      ; preds = %_ZN7Minisat3vecINS_6Solver7WatcherEE4pushERKS2_.exit
  %73 = getelementptr inbounds %"class.Minisat::Solver"* %this, i64 0, i32 27
  %74 = load i64* %73, align 8, !tbaa !132
  %75 = add i64 %74, %67
  store i64 %75, i64* %73, align 8, !tbaa !132
  br label %76

; <label>:76                                      ; preds = %72, %68
  ret void
}

; Function Attrs: ssp uwtable
define void @_ZN7Minisat6Solver12detachClauseEjb(%"class.Minisat::Solver"* nocapture %this, i32 %cr, i1 zeroext %strict) #0 align 2 {
  %1 = getelementptr inbounds %"class.Minisat::Solver"* %this, i64 0, i32 52, i32 0, i64 8
  %2 = bitcast i8* %1 to i32*
  %3 = load i32* %2, align 4, !tbaa !128
  %phitmp.i.i = icmp ugt i32 %3, %cr
  br i1 %phitmp.i.i, label %_ZN7Minisat15ClauseAllocatorixEj.exit, label %4, !prof !122

; <label>:4                                       ; preds = %0
  tail call void @__assert_rtn(i8* getelementptr inbounds ([11 x i8]* @__func__._ZNK7Minisat15RegionAllocatorIjEixEj, i64 0, i64 0), i8* getelementptr inbounds ([47 x i8]* @.str60, i64 0, i64 0), i32 63, i8* getelementptr inbounds ([17 x i8]* @.str61, i64 0, i64 0)) #16
  unreachable

_ZN7Minisat15ClauseAllocatorixEj.exit:            ; preds = %0
  %5 = getelementptr inbounds %"class.Minisat::Solver"* %this, i64 0, i32 52
  %6 = zext i32 %cr to i64
  %7 = bitcast %"class.Minisat::ClauseAllocator"* %5 to i32**
  %8 = load i32** %7, align 8, !tbaa !119
  %9 = getelementptr inbounds i32* %8, i64 %6
  %10 = load i32* %9, align 4
  %11 = icmp ult i32 %10, 64
  br i1 %11, label %12, label %13, !prof !123

; <label>:12                                      ; preds = %_ZN7Minisat15ClauseAllocatorixEj.exit
  tail call void @__assert_rtn(i8* getelementptr inbounds ([13 x i8]* @__func__._ZN7Minisat6Solver12detachClauseEjb, i64 0, i64 0), i8* getelementptr inbounds ([50 x i8]* @.str3232, i64 0, i64 0), i32 173, i8* getelementptr inbounds ([13 x i8]* @.str3434, i64 0, i64 0)) #16
  unreachable

; <label>:13                                      ; preds = %_ZN7Minisat15ClauseAllocatorixEj.exit
  %.sum = add i64 %6, 1
  %14 = getelementptr inbounds i32* %8, i64 %.sum
  %15 = load i32* %14, align 4
  %16 = xor i32 %15, 1
  %17 = sext i32 %16 to i64
  br i1 %strict, label %18, label %90

; <label>:18                                      ; preds = %13
  %19 = getelementptr inbounds %"class.Minisat::Solver"* %this, i64 0, i32 37, i32 0, i32 0
  %20 = load %"class.Minisat::vec.4"** %19, align 8, !tbaa !107
  %21 = getelementptr inbounds %"class.Minisat::vec.4"* %20, i64 %17
  %.sum32 = add i64 %6, 2
  %22 = getelementptr inbounds i32* %8, i64 %.sum32
  %23 = getelementptr inbounds %"class.Minisat::vec.4"* %20, i64 %17, i32 1
  %24 = load i32* %23, align 4, !tbaa !111
  %25 = icmp sgt i32 %24, 0
  br i1 %25, label %.lr.ph7.i10, label %.critedge.i15

.lr.ph7.i10:                                      ; preds = %18
  %26 = getelementptr inbounds %"class.Minisat::vec.4"* %21, i64 0, i32 0
  %27 = load %"struct.Minisat::Solver::Watcher"** %26, align 8, !tbaa !109
  br label %31

; <label>:28                                      ; preds = %31
  %29 = trunc i64 %indvars.iv.next15.i12 to i32
  %30 = icmp slt i32 %29, %24
  br i1 %30, label %31, label %.critedge.i15

; <label>:31                                      ; preds = %28, %.lr.ph7.i10
  %indvars.iv14.i11 = phi i64 [ 0, %.lr.ph7.i10 ], [ %indvars.iv.next15.i12, %28 ]
  %32 = getelementptr inbounds %"struct.Minisat::Solver::Watcher"* %27, i64 %indvars.iv14.i11, i32 0
  %33 = load i32* %32, align 4, !tbaa !125
  %34 = icmp eq i32 %33, %cr
  %indvars.iv.next15.i12 = add nuw nsw i64 %indvars.iv14.i11, 1
  br i1 %34, label %.critedgesplit.i13, label %28

.critedgesplit.i13:                               ; preds = %31
  %35 = trunc i64 %indvars.iv14.i11 to i32
  br label %.critedge.i15

.critedge.i15:                                    ; preds = %.critedgesplit.i13, %28, %18
  %j.0.lcssa.i14 = phi i32 [ 0, %18 ], [ %35, %.critedgesplit.i13 ], [ %29, %28 ]
  %36 = icmp slt i32 %j.0.lcssa.i14, %24
  br i1 %36, label %.preheader.i16, label %41, !prof !122

.preheader.i16:                                   ; preds = %.critedge.i15
  %37 = add nsw i32 %24, -1
  %38 = icmp slt i32 %j.0.lcssa.i14, %37
  br i1 %38, label %.lr.ph.i17, label %._crit_edge.i23

.lr.ph.i17:                                       ; preds = %.preheader.i16
  %39 = getelementptr inbounds %"class.Minisat::vec.4"* %21, i64 0, i32 0
  %40 = sext i32 %j.0.lcssa.i14 to i64
  br label %42

; <label>:41                                      ; preds = %.critedge.i15
  tail call void @__assert_rtn(i8* getelementptr inbounds ([7 x i8]* @__func__._ZN7MinisatL6removeINS_3vecINS_6Solver7WatcherEEES3_EEvRT_RKT0_, i64 0, i64 0), i8* getelementptr inbounds ([45 x i8]* @.str66, i64 0, i64 0), i32 40, i8* getelementptr inbounds ([14 x i8]* @.str67, i64 0, i64 0)) #16
  unreachable

; <label>:42                                      ; preds = %42, %.lr.ph.i17
  %indvars.iv.i18 = phi i64 [ %40, %.lr.ph.i17 ], [ %indvars.iv.next.i19, %42 ]
  %43 = load %"struct.Minisat::Solver::Watcher"** %39, align 8, !tbaa !109
  %44 = getelementptr inbounds %"struct.Minisat::Solver::Watcher"* %43, i64 %indvars.iv.i18
  %indvars.iv.next.i19 = add nsw i64 %indvars.iv.i18, 1
  %45 = getelementptr inbounds %"struct.Minisat::Solver::Watcher"* %43, i64 %indvars.iv.next.i19
  %46 = bitcast %"struct.Minisat::Solver::Watcher"* %45 to i64*
  %47 = bitcast %"struct.Minisat::Solver::Watcher"* %44 to i64*
  %48 = load i64* %46, align 4
  store i64 %48, i64* %47, align 4
  %.pr.i20 = load i32* %23, align 4, !tbaa !111
  %49 = add nsw i32 %.pr.i20, -1
  %50 = trunc i64 %indvars.iv.next.i19 to i32
  %51 = icmp slt i32 %50, %49
  br i1 %51, label %42, label %._crit_edge.i23

._crit_edge.i23:                                  ; preds = %42, %.preheader.i16
  %.lcssa1.i21 = phi i32 [ %37, %.preheader.i16 ], [ %49, %42 ]
  %.lcssa.i22 = phi i32 [ %24, %.preheader.i16 ], [ %.pr.i20, %42 ]
  %52 = icmp slt i32 %.lcssa.i22, 1
  br i1 %52, label %53, label %_ZN7MinisatL6removeINS_3vecINS_6Solver7WatcherEEES3_EEvRT_RKT0_.exit24, !prof !123

; <label>:53                                      ; preds = %._crit_edge.i23
  tail call void @__assert_rtn(i8* getelementptr inbounds ([4 x i8]* @__func__._ZN7Minisat3vecINS_3LitEE3popEv, i64 0, i64 0), i8* getelementptr inbounds ([45 x i8]* @.str58, i64 0, i64 0), i32 76, i8* getelementptr inbounds ([7 x i8]* @.str63, i64 0, i64 0)) #16
  unreachable

_ZN7MinisatL6removeINS_3vecINS_6Solver7WatcherEEES3_EEvRT_RKT0_.exit24: ; preds = %._crit_edge.i23
  store i32 %.lcssa1.i21, i32* %23, align 4, !tbaa !111
  %54 = load i32* %22, align 4
  %55 = xor i32 %54, 1
  %56 = sext i32 %55 to i64
  %57 = load %"class.Minisat::vec.4"** %19, align 8, !tbaa !107
  %58 = getelementptr inbounds %"class.Minisat::vec.4"* %57, i64 %56
  %59 = getelementptr inbounds %"class.Minisat::vec.4"* %57, i64 %56, i32 1
  %60 = load i32* %59, align 4, !tbaa !111
  %61 = icmp sgt i32 %60, 0
  br i1 %61, label %.lr.ph7.i, label %.critedge.i

.lr.ph7.i:                                        ; preds = %_ZN7MinisatL6removeINS_3vecINS_6Solver7WatcherEEES3_EEvRT_RKT0_.exit24
  %62 = getelementptr inbounds %"class.Minisat::vec.4"* %58, i64 0, i32 0
  %63 = load %"struct.Minisat::Solver::Watcher"** %62, align 8, !tbaa !109
  br label %67

; <label>:64                                      ; preds = %67
  %65 = trunc i64 %indvars.iv.next15.i to i32
  %66 = icmp slt i32 %65, %60
  br i1 %66, label %67, label %.critedge.i

; <label>:67                                      ; preds = %64, %.lr.ph7.i
  %indvars.iv14.i = phi i64 [ 0, %.lr.ph7.i ], [ %indvars.iv.next15.i, %64 ]
  %68 = getelementptr inbounds %"struct.Minisat::Solver::Watcher"* %63, i64 %indvars.iv14.i, i32 0
  %69 = load i32* %68, align 4, !tbaa !125
  %70 = icmp eq i32 %69, %cr
  %indvars.iv.next15.i = add nuw nsw i64 %indvars.iv14.i, 1
  br i1 %70, label %.critedgesplit.i, label %64

.critedgesplit.i:                                 ; preds = %67
  %71 = trunc i64 %indvars.iv14.i to i32
  br label %.critedge.i

.critedge.i:                                      ; preds = %.critedgesplit.i, %64, %_ZN7MinisatL6removeINS_3vecINS_6Solver7WatcherEEES3_EEvRT_RKT0_.exit24
  %j.0.lcssa.i = phi i32 [ 0, %_ZN7MinisatL6removeINS_3vecINS_6Solver7WatcherEEES3_EEvRT_RKT0_.exit24 ], [ %71, %.critedgesplit.i ], [ %65, %64 ]
  %72 = icmp slt i32 %j.0.lcssa.i, %60
  br i1 %72, label %.preheader.i, label %77, !prof !122

.preheader.i:                                     ; preds = %.critedge.i
  %73 = add nsw i32 %60, -1
  %74 = icmp slt i32 %j.0.lcssa.i, %73
  br i1 %74, label %.lr.ph.i, label %._crit_edge.i

.lr.ph.i:                                         ; preds = %.preheader.i
  %75 = getelementptr inbounds %"class.Minisat::vec.4"* %58, i64 0, i32 0
  %76 = sext i32 %j.0.lcssa.i to i64
  br label %78

; <label>:77                                      ; preds = %.critedge.i
  tail call void @__assert_rtn(i8* getelementptr inbounds ([7 x i8]* @__func__._ZN7MinisatL6removeINS_3vecINS_6Solver7WatcherEEES3_EEvRT_RKT0_, i64 0, i64 0), i8* getelementptr inbounds ([45 x i8]* @.str66, i64 0, i64 0), i32 40, i8* getelementptr inbounds ([14 x i8]* @.str67, i64 0, i64 0)) #16
  unreachable

; <label>:78                                      ; preds = %78, %.lr.ph.i
  %indvars.iv.i = phi i64 [ %76, %.lr.ph.i ], [ %indvars.iv.next.i, %78 ]
  %79 = load %"struct.Minisat::Solver::Watcher"** %75, align 8, !tbaa !109
  %80 = getelementptr inbounds %"struct.Minisat::Solver::Watcher"* %79, i64 %indvars.iv.i
  %indvars.iv.next.i = add nsw i64 %indvars.iv.i, 1
  %81 = getelementptr inbounds %"struct.Minisat::Solver::Watcher"* %79, i64 %indvars.iv.next.i
  %82 = bitcast %"struct.Minisat::Solver::Watcher"* %81 to i64*
  %83 = bitcast %"struct.Minisat::Solver::Watcher"* %80 to i64*
  %84 = load i64* %82, align 4
  store i64 %84, i64* %83, align 4
  %.pr.i = load i32* %59, align 4, !tbaa !111
  %85 = add nsw i32 %.pr.i, -1
  %86 = trunc i64 %indvars.iv.next.i to i32
  %87 = icmp slt i32 %86, %85
  br i1 %87, label %78, label %._crit_edge.i

._crit_edge.i:                                    ; preds = %78, %.preheader.i
  %.lcssa1.i = phi i32 [ %73, %.preheader.i ], [ %85, %78 ]
  %.lcssa.i = phi i32 [ %60, %.preheader.i ], [ %.pr.i, %78 ]
  %88 = icmp slt i32 %.lcssa.i, 1
  br i1 %88, label %89, label %_ZN7MinisatL6removeINS_3vecINS_6Solver7WatcherEEES3_EEvRT_RKT0_.exit, !prof !123

; <label>:89                                      ; preds = %._crit_edge.i
  tail call void @__assert_rtn(i8* getelementptr inbounds ([4 x i8]* @__func__._ZN7Minisat3vecINS_3LitEE3popEv, i64 0, i64 0), i8* getelementptr inbounds ([45 x i8]* @.str58, i64 0, i64 0), i32 76, i8* getelementptr inbounds ([7 x i8]* @.str63, i64 0, i64 0)) #16
  unreachable

_ZN7MinisatL6removeINS_3vecINS_6Solver7WatcherEEES3_EEvRT_RKT0_.exit: ; preds = %._crit_edge.i
  store i32 %.lcssa1.i, i32* %59, align 4, !tbaa !111
  br label %_ZN7Minisat8OccListsINS_3LitENS_3vecINS_6Solver7WatcherEEENS3_14WatcherDeletedEE6smudgeERKS1_.exit

; <label>:90                                      ; preds = %13
  %91 = getelementptr inbounds %"class.Minisat::Solver"* %this, i64 0, i32 37, i32 1, i32 0
  %92 = load i8** %91, align 8, !tbaa !102
  %93 = getelementptr inbounds i8* %92, i64 %17
  %94 = load i8* %93, align 1, !tbaa !59
  %95 = icmp eq i8 %94, 0
  br i1 %95, label %96, label %_ZN7Minisat8OccListsINS_3LitENS_3vecINS_6Solver7WatcherEEENS3_14WatcherDeletedEE6smudgeERKS1_.exit9

; <label>:96                                      ; preds = %90
  store i8 1, i8* %93, align 1, !tbaa !59
  %97 = getelementptr inbounds %"class.Minisat::Solver"* %this, i64 0, i32 37, i32 2
  %98 = getelementptr inbounds %"class.Minisat::Solver"* %this, i64 0, i32 37, i32 2, i32 1
  %99 = load i32* %98, align 4, !tbaa !61
  %100 = getelementptr inbounds %"class.Minisat::Solver"* %this, i64 0, i32 37, i32 2, i32 2
  %101 = load i32* %100, align 4, !tbaa !62
  %102 = icmp eq i32 %99, %101
  br i1 %102, label %103, label %_ZN7Minisat3vecINS_3LitEE4pushERKS1_.exit.i8

; <label>:103                                     ; preds = %96
  %104 = add nsw i32 %99, 1
  tail call void @_ZN7Minisat3vecINS_3LitEE8capacityEi(%"class.Minisat::vec.0"* %97, i32 %104)
  %.pre.i.i7 = load i32* %98, align 4, !tbaa !61
  br label %_ZN7Minisat3vecINS_3LitEE4pushERKS1_.exit.i8

_ZN7Minisat3vecINS_3LitEE4pushERKS1_.exit.i8:     ; preds = %103, %96
  %105 = phi i32 [ %.pre.i.i7, %103 ], [ %99, %96 ]
  %106 = add nsw i32 %105, 1
  store i32 %106, i32* %98, align 4, !tbaa !61
  %107 = sext i32 %105 to i64
  %108 = getelementptr inbounds %"class.Minisat::vec.0"* %97, i64 0, i32 0
  %109 = load %"struct.Minisat::Lit"** %108, align 8, !tbaa !60
  %110 = getelementptr inbounds %"struct.Minisat::Lit"* %109, i64 %107, i32 0
  store i32 %16, i32* %110, align 4, !tbaa !36
  %.pre = load i8** %91, align 8, !tbaa !102
  br label %_ZN7Minisat8OccListsINS_3LitENS_3vecINS_6Solver7WatcherEEENS3_14WatcherDeletedEE6smudgeERKS1_.exit9

_ZN7Minisat8OccListsINS_3LitENS_3vecINS_6Solver7WatcherEEENS3_14WatcherDeletedEE6smudgeERKS1_.exit9: ; preds = %_ZN7Minisat3vecINS_3LitEE4pushERKS1_.exit.i8, %90
  %111 = phi i8* [ %92, %90 ], [ %.pre, %_ZN7Minisat3vecINS_3LitEE4pushERKS1_.exit.i8 ]
